
kernel.elf:     file format elf32-littlearm


Disassembly of section .init:

00008000 <_start>:
    8000:	e1a0c00f 	mov	ip, pc
    8004:	e10f0000 	mrs	r0, CPSR
    8008:	e38000c0 	orr	r0, r0, #192	; 0xc0
    800c:	e200b01f 	and	fp, r0, #31
    8010:	e35b001a 	cmp	fp, #26
    8014:	1a000005 	bne	8030 <.NotInHypMode>
    8018:	e3c0001f 	bic	r0, r0, #31
    801c:	e3800013 	orr	r0, r0, #19
    8020:	e16ff000 	msr	SPSR_fsxc, r0
    8024:	e28fe004 	add	lr, pc, #4
    8028:	e12ef30e 	.word	0xe12ef30e
    802c:	e160006e 	.word	0xe160006e

00008030 <.NotInHypMode>:
    8030:	e59f2264 	ldr	r2, [pc, #612]	; 829c <hang+0x4>
    8034:	e59f3264 	ldr	r3, [pc, #612]	; 82a0 <hang+0x8>
    8038:	e59f4264 	ldr	r4, [pc, #612]	; 82a4 <hang+0xc>
    803c:	e59f5264 	ldr	r5, [pc, #612]	; 82a8 <hang+0x10>
    8040:	ee106f10 	mrc	15, 0, r6, cr0, cr0, {0}
    8044:	e59f7260 	ldr	r7, [pc, #608]	; 82ac <hang+0x14>
    8048:	e1560007 	cmp	r6, r7
    804c:	0a000013 	beq	80a0 <set_svc_stack>
    8050:	ee106fb0 	mrc	15, 0, r6, cr0, cr0, {5}
    8054:	e2166003 	ands	r6, r6, #3
    8058:	0a000010 	beq	80a0 <set_svc_stack>
    805c:	e3560003 	cmp	r6, #3
    8060:	0a00000b 	beq	8094 <core3_stack_setup>
    8064:	e3560002 	cmp	r6, #2
    8068:	0a000004 	beq	8080 <core2_stack_setup>
    806c:	e59f223c 	ldr	r2, [pc, #572]	; 82b0 <hang+0x18>
    8070:	e59f323c 	ldr	r3, [pc, #572]	; 82b4 <hang+0x1c>
    8074:	e59f423c 	ldr	r4, [pc, #572]	; 82b8 <hang+0x20>
    8078:	e59f523c 	ldr	r5, [pc, #572]	; 82bc <hang+0x24>
    807c:	ea000007 	b	80a0 <set_svc_stack>

00008080 <core2_stack_setup>:
    8080:	e59f2238 	ldr	r2, [pc, #568]	; 82c0 <hang+0x28>
    8084:	e59f3238 	ldr	r3, [pc, #568]	; 82c4 <hang+0x2c>
    8088:	e59f4238 	ldr	r4, [pc, #568]	; 82c8 <hang+0x30>
    808c:	e59f5238 	ldr	r5, [pc, #568]	; 82cc <hang+0x34>
    8090:	ea000002 	b	80a0 <set_svc_stack>

00008094 <core3_stack_setup>:
    8094:	e59f2234 	ldr	r2, [pc, #564]	; 82d0 <hang+0x38>
    8098:	e59f3234 	ldr	r3, [pc, #564]	; 82d4 <hang+0x3c>
    809c:	e59f4234 	ldr	r4, [pc, #564]	; 82d8 <hang+0x40>

000080a0 <set_svc_stack>:
    80a0:	e3c0001f 	bic	r0, r0, #31
    80a4:	e3800013 	orr	r0, r0, #19
    80a8:	e121f000 	msr	CPSR_c, r0
    80ac:	e1a0d002 	mov	sp, r2
    80b0:	e3c0001f 	bic	r0, r0, #31
    80b4:	e3800011 	orr	r0, r0, #17
    80b8:	e121f000 	msr	CPSR_c, r0
    80bc:	e1a0d003 	mov	sp, r3
    80c0:	e3c0001f 	bic	r0, r0, #31
    80c4:	e3800012 	orr	r0, r0, #18
    80c8:	e121f000 	msr	CPSR_c, r0
    80cc:	e1a0d004 	mov	sp, r4
    80d0:	e3c0001f 	bic	r0, r0, #31
    80d4:	e380001f 	orr	r0, r0, #31
    80d8:	e121f000 	msr	CPSR_c, r0
    80dc:	e1a0d005 	mov	sp, r5
    80e0:	e3c0001f 	bic	r0, r0, #31
    80e4:	e380001f 	orr	r0, r0, #31
    80e8:	e121f000 	msr	CPSR_c, r0
    80ec:	ee110f51 	mrc	15, 0, r0, cr1, cr1, {2}
    80f0:	e3500b03 	cmp	r0, #3072	; 0xc00
    80f4:	0a000001 	beq	8100 <.free_to_enable_fpu1>
    80f8:	e3800b03 	orr	r0, r0, #3072	; 0xc00
    80fc:	ee010f51 	mcr	15, 0, r0, cr1, cr1, {2}

00008100 <.free_to_enable_fpu1>:
    8100:	ee110f50 	mrc	15, 0, r0, cr1, cr0, {2}
    8104:	e380060f 	orr	r0, r0, #15728640	; 0xf00000
    8108:	ee010f50 	mcr	15, 0, r0, cr1, cr0, {2}
    810c:	e3a00101 	mov	r0, #1073741824	; 0x40000000
    8110:	eee80a10 	vmsr	fpexc, r0
    8114:	ee110f10 	mrc	15, 0, r0, cr1, cr0, {0}
    8118:	e3800b02 	orr	r0, r0, #2048	; 0x800
    811c:	e3800004 	orr	r0, r0, #4
    8120:	e3800a01 	orr	r0, r0, #4096	; 0x1000
    8124:	ee010f10 	mcr	15, 0, r0, cr1, cr0, {0}
    8128:	ee100f10 	mrc	15, 0, r0, cr0, cr0, {0}
    812c:	e59f1178 	ldr	r1, [pc, #376]	; 82ac <hang+0x14>
    8130:	e1510000 	cmp	r1, r0
    8134:	0a000007 	beq	8158 <.cpu0_exit_multicore_park>
    8138:	ee100fb0 	mrc	15, 0, r0, cr0, cr0, {5}
    813c:	e2100003 	ands	r0, r0, #3
    8140:	0a000004 	beq	8158 <.cpu0_exit_multicore_park>
    8144:	e59f1190 	ldr	r1, [pc, #400]	; 82dc <hang+0x44>
    8148:	e5910000 	ldr	r0, [r1]
    814c:	e2800001 	add	r0, r0, #1
    8150:	e5810000 	str	r0, [r1]
    8154:	ea00007e 	b	8354 <SecondarySpin>

00008158 <.cpu0_exit_multicore_park>:
    8158:	e59f1180 	ldr	r1, [pc, #384]	; 82e0 <hang+0x48>
    815c:	e24cc008 	sub	ip, ip, #8
    8160:	e581c000 	str	ip, [r1]
    8164:	e59f1178 	ldr	r1, [pc, #376]	; 82e4 <hang+0x4c>
    8168:	e581b000 	str	fp, [r1]
    816c:	e3a00001 	mov	r0, #1
    8170:	e59f1164 	ldr	r1, [pc, #356]	; 82dc <hang+0x44>
    8174:	e5810000 	str	r0, [r1]
    8178:	e10f2000 	mrs	r2, CPSR
    817c:	e202201f 	and	r2, r2, #31
    8180:	e59f1160 	ldr	r1, [pc, #352]	; 82e8 <hang+0x50>
    8184:	e5812000 	str	r2, [r1]
    8188:	e59f115c 	ldr	r1, [pc, #348]	; 82ec <hang+0x54>
    818c:	ee100f10 	mrc	15, 0, r0, cr0, cr0, {0}
    8190:	e5810000 	str	r0, [r1]
    8194:	e0200000 	eor	r0, r0, r0
    8198:	e3a00008 	mov	r0, #8
    819c:	e3800080 	orr	r0, r0, #128	; 0x80
    81a0:	e3800102 	orr	r0, r0, #-2147483648	; 0x80000000
    81a4:	e59f1144 	ldr	r1, [pc, #324]	; 82f0 <hang+0x58>
    81a8:	e5810000 	str	r0, [r1]
    81ac:	e3a02202 	mov	r2, #536870912	; 0x20000000
    81b0:	e3a03101 	mov	r3, #1073741824	; 0x40000000
    81b4:	e59f1138 	ldr	r1, [pc, #312]	; 82f4 <hang+0x5c>
    81b8:	e59f0138 	ldr	r0, [pc, #312]	; 82f8 <hang+0x60>
    81bc:	e5900000 	ldr	r0, [r0]
    81c0:	e1510000 	cmp	r1, r0
    81c4:	0a000001 	beq	81d0 <.Is_a_Pi1>
    81c8:	e3a0243f 	mov	r2, #1056964608	; 0x3f000000
    81cc:	e3a03103 	mov	r3, #-1073741824	; 0xc0000000

000081d0 <.Is_a_Pi1>:
    81d0:	e59f1124 	ldr	r1, [pc, #292]	; 82fc <hang+0x64>
    81d4:	e5812000 	str	r2, [r1]
    81d8:	e59f1120 	ldr	r1, [pc, #288]	; 8300 <hang+0x68>
    81dc:	e5813000 	str	r3, [r1]
    81e0:	e59f011c 	ldr	r0, [pc, #284]	; 8304 <hang+0x6c>
    81e4:	e3a01000 	mov	r1, #0
    81e8:	e8b003fc 	ldm	r0!, {r2, r3, r4, r5, r6, r7, r8, r9}
    81ec:	e8a103fc 	stmia	r1!, {r2, r3, r4, r5, r6, r7, r8, r9}
    81f0:	e8b003fc 	ldm	r0!, {r2, r3, r4, r5, r6, r7, r8, r9}
    81f4:	e8a103fc 	stmia	r1!, {r2, r3, r4, r5, r6, r7, r8, r9}
    81f8:	e59f0108 	ldr	r0, [pc, #264]	; 8308 <hang+0x70>
    81fc:	e59f1108 	ldr	r1, [pc, #264]	; 830c <hang+0x74>
    8200:	e3a02000 	mov	r2, #0

00008204 <.clear_bss>:
    8204:	e1500001 	cmp	r0, r1
    8208:	aa000002 	bge	8218 <.clear_bss_exit>
    820c:	e5802000 	str	r2, [r0]
    8210:	e2800004 	add	r0, r0, #4
    8214:	eafffffa 	b	8204 <.clear_bss>

00008218 <.clear_bss_exit>:
    8218:	ee100f10 	mrc	15, 0, r0, cr0, cr0, {0}
    821c:	e59f1088 	ldr	r1, [pc, #136]	; 82ac <hang+0x14>
    8220:	e1510000 	cmp	r1, r0
    8224:	0a00001a 	beq	8294 <.NoMultiCoreSetup>
    8228:	e59f10b0 	ldr	r1, [pc, #176]	; 82e0 <hang+0x48>
    822c:	e5910000 	ldr	r0, [r1]
    8230:	e3a01902 	mov	r1, #32768	; 0x8000
    8234:	e1510000 	cmp	r1, r0
    8238:	1a000015 	bne	8294 <.NoMultiCoreSetup>
    823c:	e3a01101 	mov	r1, #1073741824	; 0x40000000
    8240:	e59f20c8 	ldr	r2, [pc, #200]	; 8310 <hang+0x78>
    8244:	e581209c 	str	r2, [r1, #156]	; 0x9c
    8248:	e320f004 	sev
    824c:	e59f3088 	ldr	r3, [pc, #136]	; 82dc <hang+0x44>

00008250 <.WaitCore1ACK>:
    8250:	e5931000 	ldr	r1, [r3]
    8254:	e3510002 	cmp	r1, #2
    8258:	1afffffc 	bne	8250 <.WaitCore1ACK>
    825c:	e3a01101 	mov	r1, #1073741824	; 0x40000000
    8260:	e59f20a8 	ldr	r2, [pc, #168]	; 8310 <hang+0x78>
    8264:	e58120ac 	str	r2, [r1, #172]	; 0xac
    8268:	e320f004 	sev

0000826c <.WaitCore2ACK>:
    826c:	e5931000 	ldr	r1, [r3]
    8270:	e3510003 	cmp	r1, #3
    8274:	1afffffc 	bne	826c <.WaitCore2ACK>
    8278:	e3a01101 	mov	r1, #1073741824	; 0x40000000
    827c:	e59f208c 	ldr	r2, [pc, #140]	; 8310 <hang+0x78>
    8280:	e58120bc 	str	r2, [r1, #188]	; 0xbc
    8284:	e320f004 	sev

00008288 <.WaitCore3ACK>:
    8288:	e5931000 	ldr	r1, [r3]
    828c:	e3510004 	cmp	r1, #4
    8290:	1afffffc 	bne	8288 <.WaitCore3ACK>

00008294 <.NoMultiCoreSetup>:
    8294:	eb000b58 	bl	affc <kernel_main>

00008298 <hang>:
    8298:	eafffffe 	b	8298 <hang>
    829c:	0000f5e8 	.word	0x0000f5e8
    82a0:	0000f3e8 	.word	0x0000f3e8
    82a4:	0000f1e8 	.word	0x0000f1e8
    82a8:	000135e8 	.word	0x000135e8
    82ac:	410fb767 	.word	0x410fb767
    82b0:	00013be8 	.word	0x00013be8
    82b4:	000139e8 	.word	0x000139e8
    82b8:	000137e8 	.word	0x000137e8
    82bc:	00014be8 	.word	0x00014be8
    82c0:	000151e8 	.word	0x000151e8
    82c4:	00014fe8 	.word	0x00014fe8
    82c8:	00014de8 	.word	0x00014de8
    82cc:	000161e8 	.word	0x000161e8
    82d0:	000167e8 	.word	0x000167e8
    82d4:	000165e8 	.word	0x000165e8
    82d8:	000163e8 	.word	0x000163e8
    82dc:	0000eec8 	.word	0x0000eec8
    82e0:	0000eec4 	.word	0x0000eec4
    82e4:	0000eecc 	.word	0x0000eecc
    82e8:	0000eed8 	.word	0x0000eed8
    82ec:	0000eed0 	.word	0x0000eed0
    82f0:	0000eed4 	.word	0x0000eed4
    82f4:	4f54280a 	.word	0x4f54280a
    82f8:	20980040 	.word	0x20980040
    82fc:	0000eebc 	.word	0x0000eebc
    8300:	0000eec0 	.word	0x0000eec0
    8304:	00008314 	.word	0x00008314
    8308:	0000ef30 	.word	0x0000ef30
    830c:	0000efe8 	.word	0x0000efe8
    8310:	00008000 	.word	0x00008000

00008314 <_isr_Table>:
    8314:	e59ff018 	ldr	pc, [pc, #24]	; 8334 <_reset_h>
    8318:	e59ff018 	ldr	pc, [pc, #24]	; 8338 <_undefined_instruction_vector_h>
    831c:	e59ff018 	ldr	pc, [pc, #24]	; 833c <_software_interrupt_vector_h>
    8320:	e59ff018 	ldr	pc, [pc, #24]	; 8340 <_prefetch_abort_vector_h>
    8324:	e59ff018 	ldr	pc, [pc, #24]	; 8344 <_data_abort_vector_h>
    8328:	e59ff018 	ldr	pc, [pc, #24]	; 8348 <_unused_handler_h>
    832c:	e59ff018 	ldr	pc, [pc, #24]	; 834c <_interrupt_vector_h>
    8330:	e59ff018 	ldr	pc, [pc, #24]	; 8350 <_fast_interrupt_vector_h>

00008334 <_reset_h>:
    8334:	00008000 	.word	0x00008000

00008338 <_undefined_instruction_vector_h>:
    8338:	00008298 	.word	0x00008298

0000833c <_software_interrupt_vector_h>:
    833c:	00008298 	.word	0x00008298

00008340 <_prefetch_abort_vector_h>:
    8340:	00008298 	.word	0x00008298

00008344 <_data_abort_vector_h>:
    8344:	00008298 	.word	0x00008298

00008348 <_unused_handler_h>:
    8348:	00008298 	.word	0x00008298

0000834c <_interrupt_vector_h>:
    834c:	000083b8 	.word	0x000083b8

00008350 <_fast_interrupt_vector_h>:
    8350:	000083fc 	.word	0x000083fc

00008354 <SecondarySpin>:
    8354:	ee100fb0 	mrc	15, 0, r0, cr0, cr0, {5}
    8358:	e2100003 	ands	r0, r0, #3
    835c:	e59f5044 	ldr	r5, [pc, #68]	; 83a8 <atags+0x4>
    8360:	e5955000 	ldr	r5, [r5]
    8364:	e3a03000 	mov	r3, #0

00008368 <SecondarySpinLoop>:
    8368:	e320f002 	wfe
    836c:	e7954200 	ldr	r4, [r5, r0, lsl #4]
    8370:	e1540003 	cmp	r4, r3
    8374:	0afffffb 	beq	8368 <SecondarySpinLoop>
    8378:	e7854200 	str	r4, [r5, r0, lsl #4]
    837c:	e3a00000 	mov	r0, #0
    8380:	e59f1024 	ldr	r1, [pc, #36]	; 83ac <atags+0x8>
    8384:	e5911000 	ldr	r1, [r1]
    8388:	e59f2020 	ldr	r2, [pc, #32]	; 83b0 <atags+0xc>
    838c:	e5922000 	ldr	r2, [r2]
    8390:	e59fe01c 	ldr	lr, [pc, #28]	; 83b4 <atags+0x10>
    8394:	e12fff14 	bx	r4
    8398:	eaffffed 	b	8354 <SecondarySpin>

0000839c <mbox>:
    839c:	400000cc 	.word	0x400000cc

000083a0 <machid>:
    83a0:	00000c42 	.word	0x00000c42

000083a4 <atags>:
    83a4:	00000100 	.word	0x00000100
    83a8:	0000839c 	.word	0x0000839c
    83ac:	000083a0 	.word	0x000083a0
    83b0:	000083a4 	.word	0x000083a4
    83b4:	00008354 	.word	0x00008354

000083b8 <irq_handler_stub>:
    83b8:	e24ee004 	sub	lr, lr, #4
    83bc:	f96d0513 	srsdb	sp!, #19
    83c0:	f1020013 	cps	#19
    83c4:	e92d120f 	push	{r0, r1, r2, r3, r9, ip}
    83c8:	e1a0100d 	mov	r1, sp
    83cc:	e2011004 	and	r1, r1, #4
    83d0:	e04dd001 	sub	sp, sp, r1
    83d4:	e92d4002 	push	{r1, lr}
    83d8:	e59f0060 	ldr	r0, [pc, #96]	; 8440 <no_fiqset+0x10>
    83dc:	e5900000 	ldr	r0, [r0]
    83e0:	e3500000 	cmp	r0, #0
    83e4:	0a000000 	beq	83ec <no_irqset>
    83e8:	e12fff30 	blx	r0

000083ec <no_irqset>:
    83ec:	e8bd4002 	pop	{r1, lr}
    83f0:	e08dd001 	add	sp, sp, r1
    83f4:	e8bd120f 	pop	{r0, r1, r2, r3, r9, ip}
    83f8:	f8bd0a00 	rfeia	sp!

000083fc <fiq_handler_stub>:
    83fc:	e24ee004 	sub	lr, lr, #4
    8400:	f96d0513 	srsdb	sp!, #19
    8404:	f1020013 	cps	#19
    8408:	e92d120f 	push	{r0, r1, r2, r3, r9, ip}
    840c:	e1a0100d 	mov	r1, sp
    8410:	e2011004 	and	r1, r1, #4
    8414:	e04dd001 	sub	sp, sp, r1
    8418:	e92d4002 	push	{r1, lr}
    841c:	e59f0020 	ldr	r0, [pc, #32]	; 8444 <no_fiqset+0x14>
    8420:	e5900000 	ldr	r0, [r0]
    8424:	e3500000 	cmp	r0, #0
    8428:	0a000000 	beq	8430 <no_fiqset>
    842c:	e12fff30 	blx	r0

00008430 <no_fiqset>:
    8430:	e8bd4002 	pop	{r1, lr}
    8434:	e08dd001 	add	sp, sp, r1
    8438:	e8bd120f 	pop	{r0, r1, r2, r3, r9, ip}
    843c:	f8bd0a00 	rfeia	sp!
    8440:	0000eeb4 	.word	0x0000eeb4
    8444:	0000eeb8 	.word	0x0000eeb8

Disassembly of section .text:

00008448 <EnableInterrupts>:
    8448:	f1080080 	cpsie	i
    844c:	e12fff1e 	bx	lr

00008450 <DisableInterrupts>:
    8450:	f10c0080 	cpsid	i
    8454:	e12fff1e 	bx	lr

00008458 <ARMaddrToGPUaddr>:
    8458:	e59f1008 	ldr	r1, [pc, #8]	; 8468 <ARMaddrToGPUaddr+0x10>
    845c:	e5911000 	ldr	r1, [r1]
    8460:	e1800001 	orr	r0, r0, r1
    8464:	e12fff1e 	bx	lr
    8468:	0000eec0 	.word	0x0000eec0

0000846c <GPUaddrToARMaddr>:
    846c:	e59f1008 	ldr	r1, [pc, #8]	; 847c <GPUaddrToARMaddr+0x10>
    8470:	e5911000 	ldr	r1, [r1]
    8474:	e1c00001 	bic	r0, r0, r1
    8478:	e12fff1e 	bx	lr
    847c:	0000eec0 	.word	0x0000eec0

00008480 <CoreExecute>:
    8480:	e59f3024 	ldr	r3, [pc, #36]	; 84ac <CoreExecuteFail+0x8>
    8484:	e5932000 	ldr	r2, [r3]
    8488:	e1500002 	cmp	r0, r2
    848c:	2a000004 	bcs	84a4 <CoreExecuteFail>
    8490:	e59f3018 	ldr	r3, [pc, #24]	; 84b0 <CoreExecuteFail+0xc>
    8494:	e7831200 	str	r1, [r3, r0, lsl #4]
    8498:	e320f004 	sev
    849c:	e3a00001 	mov	r0, #1
    84a0:	e12fff1e 	bx	lr

000084a4 <CoreExecuteFail>:
    84a4:	e3a00000 	mov	r0, #0
    84a8:	e12fff1e 	bx	lr
    84ac:	0000eec8 	.word	0x0000eec8
    84b0:	4000008c 	.word	0x4000008c

000084b4 <setIrqFuncAddress>:
    84b4:	f10c0080 	cpsid	i
    84b8:	e59f100c 	ldr	r1, [pc, #12]	; 84cc <setIrqFuncAddress+0x18>
    84bc:	e5912000 	ldr	r2, [r1]
    84c0:	e5810000 	str	r0, [r1]
    84c4:	e1a00002 	mov	r0, r2
    84c8:	e12fff1e 	bx	lr
    84cc:	0000eeb4 	.word	0x0000eeb4

000084d0 <setFiqFuncAddress>:
    84d0:	f10c0080 	cpsid	i
    84d4:	e59f100c 	ldr	r1, [pc, #12]	; 84e8 <setFiqFuncAddress+0x18>
    84d8:	e5912000 	ldr	r2, [r1]
    84dc:	e5810000 	str	r0, [r1]
    84e0:	e1a00002 	mov	r0, r2
    84e4:	e12fff1e 	bx	lr
    84e8:	0000eeb8 	.word	0x0000eeb8

000084ec <InitV3D>:
    84ec:	e52de004 	push	{lr}		; (str lr, [sp, #-4]!)
    84f0:	e3a03008 	mov	r3, #8
    84f4:	e3a01012 	mov	r1, #18
    84f8:	e3401003 	movt	r1, #3
    84fc:	e24dd024 	sub	sp, sp, #36	; 0x24
    8500:	e3a00000 	mov	r0, #0
    8504:	e30b2280 	movw	r2, #45696	; 0xb280
    8508:	e3402ee6 	movt	r2, #3814	; 0xee6
    850c:	e58d100c 	str	r1, [sp, #12]
    8510:	e3a01001 	mov	r1, #1
    8514:	e58d2008 	str	r2, [sp, #8]
    8518:	e3a02004 	mov	r2, #4
    851c:	e58d1018 	str	r1, [sp, #24]
    8520:	e3a01005 	mov	r1, #5
    8524:	e58d2014 	str	r2, [sp, #20]
    8528:	e58d2010 	str	r2, [sp, #16]
    852c:	e3082002 	movw	r2, #32770	; 0x8002
    8530:	e3402003 	movt	r2, #3
    8534:	e58d1004 	str	r1, [sp, #4]
    8538:	e58d3000 	str	r3, [sp]
    853c:	e3a01009 	mov	r1, #9
    8540:	eb0010d5 	bl	c89c <mailbox_tag_message>
    8544:	e3500000 	cmp	r0, #0
    8548:	0a000009 	beq	8574 <InitV3D+0x88>
    854c:	e30e3ebc 	movw	r3, #61116	; 0xeebc
    8550:	e3403000 	movt	r3, #0
    8554:	e3032356 	movw	r2, #13142	; 0x3356
    8558:	e3402244 	movt	r2, #580	; 0x244
    855c:	e5933000 	ldr	r3, [r3]
    8560:	e2833503 	add	r3, r3, #12582912	; 0xc00000
    8564:	e5930000 	ldr	r0, [r3]
    8568:	e0400002 	sub	r0, r0, r2
    856c:	e16f0f10 	clz	r0, r0
    8570:	e1a002a0 	lsr	r0, r0, #5
    8574:	e28dd024 	add	sp, sp, #36	; 0x24
    8578:	e49df004 	pop	{pc}		; (ldr pc, [sp], #4)

0000857c <V3D_mem_alloc>:
    857c:	e52de004 	push	{lr}		; (str lr, [sp, #-4]!)
    8580:	e3a0300c 	mov	r3, #12
    8584:	e24dd02c 	sub	sp, sp, #44	; 0x2c
    8588:	e58d200c 	str	r2, [sp, #12]
    858c:	e1a02003 	mov	r2, r3
    8590:	e58d0004 	str	r0, [sp, #4]
    8594:	e3402003 	movt	r2, #3
    8598:	e58d1008 	str	r1, [sp, #8]
    859c:	e28d0010 	add	r0, sp, #16
    85a0:	e3a01006 	mov	r1, #6
    85a4:	e58d3000 	str	r3, [sp]
    85a8:	eb0010bb 	bl	c89c <mailbox_tag_message>
    85ac:	e3500000 	cmp	r0, #0
    85b0:	159d001c 	ldrne	r0, [sp, #28]
    85b4:	e28dd02c 	add	sp, sp, #44	; 0x2c
    85b8:	e49df004 	pop	{pc}		; (ldr pc, [sp], #4)

000085bc <V3D_mem_free>:
    85bc:	e52de004 	push	{lr}		; (str lr, [sp, #-4]!)
    85c0:	e3a03004 	mov	r3, #4
    85c4:	e1a01003 	mov	r1, r3
    85c8:	e24dd00c 	sub	sp, sp, #12
    85cc:	e3a0200f 	mov	r2, #15
    85d0:	e3402003 	movt	r2, #3
    85d4:	e58d0004 	str	r0, [sp, #4]
    85d8:	e3a00000 	mov	r0, #0
    85dc:	e58d3000 	str	r3, [sp]
    85e0:	eb0010ad 	bl	c89c <mailbox_tag_message>
    85e4:	e28dd00c 	add	sp, sp, #12
    85e8:	e49df004 	pop	{pc}		; (ldr pc, [sp], #4)

000085ec <V3D_mem_lock>:
    85ec:	e52de004 	push	{lr}		; (str lr, [sp, #-4]!)
    85f0:	f2c00010 	vmov.i32	d16, #0	; 0x00000000
    85f4:	e3a03004 	mov	r3, #4
    85f8:	e24dd01c 	sub	sp, sp, #28
    85fc:	e1a02000 	mov	r2, r0
    8600:	e1a01003 	mov	r1, r3
    8604:	e28d0008 	add	r0, sp, #8
    8608:	e58d2004 	str	r2, [sp, #4]
    860c:	e3a0200d 	mov	r2, #13
    8610:	e3402003 	movt	r2, #3
    8614:	e58d3000 	str	r3, [sp]
    8618:	edcd0b02 	vstr	d16, [sp, #8]
    861c:	edcd0b04 	vstr	d16, [sp, #16]
    8620:	eb00109d 	bl	c89c <mailbox_tag_message>
    8624:	e3500000 	cmp	r0, #0
    8628:	159d0014 	ldrne	r0, [sp, #20]
    862c:	e28dd01c 	add	sp, sp, #28
    8630:	e49df004 	pop	{pc}		; (ldr pc, [sp], #4)

00008634 <V3D_mem_unlock>:
    8634:	e52de004 	push	{lr}		; (str lr, [sp, #-4]!)
    8638:	e3a03004 	mov	r3, #4
    863c:	e1a01003 	mov	r1, r3
    8640:	e24dd00c 	sub	sp, sp, #12
    8644:	e3a0200e 	mov	r2, #14
    8648:	e3402003 	movt	r2, #3
    864c:	e58d0004 	str	r0, [sp, #4]
    8650:	e3a00000 	mov	r0, #0
    8654:	e58d3000 	str	r3, [sp]
    8658:	eb00108f 	bl	c89c <mailbox_tag_message>
    865c:	e28dd00c 	add	sp, sp, #12
    8660:	e49df004 	pop	{pc}		; (ldr pc, [sp], #4)

00008664 <V3D_execute_code>:
    8664:	e92d4030 	push	{r4, r5, lr}
    8668:	e3a0c01c 	mov	ip, #28
    866c:	e1a0e003 	mov	lr, r3
    8670:	e24dd024 	sub	sp, sp, #36	; 0x24
    8674:	e1a0300c 	mov	r3, ip
    8678:	e59d5030 	ldr	r5, [sp, #48]	; 0x30
    867c:	e59d4034 	ldr	r4, [sp, #52]	; 0x34
    8680:	e58de010 	str	lr, [sp, #16]
    8684:	e59de038 	ldr	lr, [sp, #56]	; 0x38
    8688:	e58d200c 	str	r2, [sp, #12]
    868c:	e3a02010 	mov	r2, #16
    8690:	e3402003 	movt	r2, #3
    8694:	e58d0004 	str	r0, [sp, #4]
    8698:	e58d1008 	str	r1, [sp, #8]
    869c:	e3a00000 	mov	r0, #0
    86a0:	e3a0100a 	mov	r1, #10
    86a4:	e58d5014 	str	r5, [sp, #20]
    86a8:	e58d4018 	str	r4, [sp, #24]
    86ac:	e58de01c 	str	lr, [sp, #28]
    86b0:	e58dc000 	str	ip, [sp]
    86b4:	eb001078 	bl	c89c <mailbox_tag_message>
    86b8:	e28dd024 	add	sp, sp, #36	; 0x24
    86bc:	e8bd8030 	pop	{r4, r5, pc}

000086c0 <V3D_execute_qpu>:
    86c0:	e52de004 	push	{lr}		; (str lr, [sp, #-4]!)
    86c4:	e3a0c010 	mov	ip, #16
    86c8:	e24dd01c 	sub	sp, sp, #28
    86cc:	e98d000f 	stmib	sp, {r0, r1, r2, r3}
    86d0:	e1a0300c 	mov	r3, ip
    86d4:	e3a01007 	mov	r1, #7
    86d8:	e58dc000 	str	ip, [sp]
    86dc:	e3a02011 	mov	r2, #17
    86e0:	e3402003 	movt	r2, #3
    86e4:	e3a00000 	mov	r0, #0
    86e8:	eb00106b 	bl	c89c <mailbox_tag_message>
    86ec:	e28dd01c 	add	sp, sp, #28
    86f0:	e49df004 	pop	{pc}		; (ldr pc, [sp], #4)

000086f4 <V3D_InitializeScene>:
    86f4:	e92d40f0 	push	{r4, r5, r6, r7, lr}
    86f8:	e2504000 	subs	r4, r0, #0
    86fc:	e24dd02c 	sub	sp, sp, #44	; 0x2c
    8700:	0a000014 	beq	8758 <V3D_InitializeScene+0x64>
    8704:	e3a0300c 	mov	r3, #12
    8708:	e1a06002 	mov	r6, r2
    870c:	e3a02a01 	mov	r2, #4096	; 0x1000
    8710:	e58d2008 	str	r2, [sp, #8]
    8714:	e1a02003 	mov	r2, r3
    8718:	e1a07001 	mov	r7, r1
    871c:	e28d0010 	add	r0, sp, #16
    8720:	e3a01018 	mov	r1, #24
    8724:	e3402003 	movt	r2, #3
    8728:	e58d100c 	str	r1, [sp, #12]
    872c:	e58d3000 	str	r3, [sp]
    8730:	e3a01801 	mov	r1, #65536	; 0x10000
    8734:	e58d1004 	str	r1, [sp, #4]
    8738:	e3a01006 	mov	r1, #6
    873c:	eb001056 	bl	c89c <mailbox_tag_message>
    8740:	e2505000 	subs	r5, r0, #0
    8744:	05845004 	streq	r5, [r4, #4]
    8748:	1a000006 	bne	8768 <V3D_InitializeScene+0x74>
    874c:	e1a00005 	mov	r0, r5
    8750:	e28dd02c 	add	sp, sp, #44	; 0x2c
    8754:	e8bd80f0 	pop	{r4, r5, r6, r7, pc}
    8758:	e3a05000 	mov	r5, #0
    875c:	e1a00005 	mov	r0, r5
    8760:	e28dd02c 	add	sp, sp, #44	; 0x2c
    8764:	e8bd80f0 	pop	{r4, r5, r6, r7, pc}
    8768:	e59d201c 	ldr	r2, [sp, #28]
    876c:	e5842004 	str	r2, [r4, #4]
    8770:	e3520000 	cmp	r2, #0
    8774:	0afffff7 	beq	8758 <V3D_InitializeScene+0x64>
    8778:	f2c00010 	vmov.i32	d16, #0	; 0x00000000
    877c:	e3a03004 	mov	r3, #4
    8780:	e1a01003 	mov	r1, r3
    8784:	e58d2004 	str	r2, [sp, #4]
    8788:	e58d3000 	str	r3, [sp]
    878c:	e28d0010 	add	r0, sp, #16
    8790:	e3a0200d 	mov	r2, #13
    8794:	e3402003 	movt	r2, #3
    8798:	edcd0b04 	vstr	d16, [sp, #16]
    879c:	edcd0b06 	vstr	d16, [sp, #24]
    87a0:	eb00103d 	bl	c89c <mailbox_tag_message>
    87a4:	e3500000 	cmp	r0, #0
    87a8:	e287103f 	add	r1, r7, #63	; 0x3f
    87ac:	e286203f 	add	r2, r6, #63	; 0x3f
    87b0:	e3a0300c 	mov	r3, #12
    87b4:	e1c470bc 	strh	r7, [r4, #12]
    87b8:	e1a01321 	lsr	r1, r1, #6
    87bc:	159d001c 	ldrne	r0, [sp, #28]
    87c0:	e1a02322 	lsr	r2, r2, #6
    87c4:	e5840008 	str	r0, [r4, #8]
    87c8:	e5840000 	str	r0, [r4]
    87cc:	e3a00a01 	mov	r0, #4096	; 0x1000
    87d0:	e5841018 	str	r1, [r4, #24]
    87d4:	e3a01901 	mov	r1, #16384	; 0x4000
    87d8:	e584201c 	str	r2, [r4, #28]
    87dc:	e3a02018 	mov	r2, #24
    87e0:	e1c460be 	strh	r6, [r4, #14]
    87e4:	e58d3000 	str	r3, [sp]
    87e8:	e5841040 	str	r1, [r4, #64]	; 0x40
    87ec:	e3a01902 	mov	r1, #32768	; 0x8000
    87f0:	e58d200c 	str	r2, [sp, #12]
    87f4:	e1a02003 	mov	r2, r3
    87f8:	e58d0008 	str	r0, [sp, #8]
    87fc:	e3402003 	movt	r2, #3
    8800:	e58d1004 	str	r1, [sp, #4]
    8804:	e28d0010 	add	r0, sp, #16
    8808:	e3a01006 	mov	r1, #6
    880c:	eb001022 	bl	c89c <mailbox_tag_message>
    8810:	e3500000 	cmp	r0, #0
    8814:	f2c00010 	vmov.i32	d16, #0	; 0x00000000
    8818:	e3a03004 	mov	r3, #4
    881c:	e1a01003 	mov	r1, r3
    8820:	e3a0200d 	mov	r2, #13
    8824:	e3402003 	movt	r2, #3
    8828:	159d001c 	ldrne	r0, [sp, #28]
    882c:	e584003c 	str	r0, [r4, #60]	; 0x3c
    8830:	e58d0004 	str	r0, [sp, #4]
    8834:	e28d0010 	add	r0, sp, #16
    8838:	e58d3000 	str	r3, [sp]
    883c:	edcd0b04 	vstr	d16, [sp, #16]
    8840:	edcd0b06 	vstr	d16, [sp, #24]
    8844:	eb001014 	bl	c89c <mailbox_tag_message>
    8848:	e3500000 	cmp	r0, #0
    884c:	e3a0300c 	mov	r3, #12
    8850:	03a02901 	moveq	r2, #16384	; 0x4000
    8854:	e3a01018 	mov	r1, #24
    8858:	159d001c 	ldrne	r0, [sp, #28]
    885c:	e5840044 	str	r0, [r4, #68]	; 0x44
    8860:	12802901 	addne	r2, r0, #16384	; 0x4000
    8864:	e5842048 	str	r2, [r4, #72]	; 0x48
    8868:	e3a02a01 	mov	r2, #4096	; 0x1000
    886c:	e58d2008 	str	r2, [sp, #8]
    8870:	e1a02003 	mov	r2, r3
    8874:	e58d3000 	str	r3, [sp]
    8878:	e58d100c 	str	r1, [sp, #12]
    887c:	e3402003 	movt	r2, #3
    8880:	e3a01801 	mov	r1, #65536	; 0x10000
    8884:	e28d0010 	add	r0, sp, #16
    8888:	e58d1004 	str	r1, [sp, #4]
    888c:	e3a01006 	mov	r1, #6
    8890:	eb001001 	bl	c89c <mailbox_tag_message>
    8894:	e2502000 	subs	r2, r0, #0
    8898:	f2c00010 	vmov.i32	d16, #0	; 0x00000000
    889c:	e3a03004 	mov	r3, #4
    88a0:	e28d0010 	add	r0, sp, #16
    88a4:	e1a01003 	mov	r1, r3
    88a8:	159d201c 	ldrne	r2, [sp, #28]
    88ac:	e584204c 	str	r2, [r4, #76]	; 0x4c
    88b0:	e58d2004 	str	r2, [sp, #4]
    88b4:	e3a0200d 	mov	r2, #13
    88b8:	e3402003 	movt	r2, #3
    88bc:	e58d3000 	str	r3, [sp]
    88c0:	edcd0b04 	vstr	d16, [sp, #16]
    88c4:	edcd0b06 	vstr	d16, [sp, #24]
    88c8:	eb000ff3 	bl	c89c <mailbox_tag_message>
    88cc:	e3500000 	cmp	r0, #0
    88d0:	159d001c 	ldrne	r0, [sp, #28]
    88d4:	e5840050 	str	r0, [r4, #80]	; 0x50
    88d8:	e1a00005 	mov	r0, r5
    88dc:	e28dd02c 	add	sp, sp, #44	; 0x2c
    88e0:	e8bd80f0 	pop	{r4, r5, r6, r7, pc}

000088e4 <V3D_AddVertexesToScene>:
    88e4:	e92d47f0 	push	{r4, r5, r6, r7, r8, r9, sl, lr}
    88e8:	e2505000 	subs	r5, r0, #0
    88ec:	1a000001 	bne	88f8 <V3D_AddVertexesToScene+0x14>
    88f0:	e1a00005 	mov	r0, r5
    88f4:	e8bd87f0 	pop	{r4, r5, r6, r7, r8, r9, sl, pc}
    88f8:	e5950000 	ldr	r0, [r5]
    88fc:	e3a04000 	mov	r4, #0
    8900:	e3a09007 	mov	r9, #7
    8904:	e280007f 	add	r0, r0, #127	; 0x7f
    8908:	e3c0007f 	bic	r0, r0, #127	; 0x7f
    890c:	e5850028 	str	r0, [r5, #40]	; 0x28
    8910:	ebfffed5 	bl	846c <GPUaddrToARMaddr>
    8914:	e1d530be 	ldrh	r3, [r5, #14]
    8918:	e1d5c0bc 	ldrh	ip, [r5, #12]
    891c:	e3e0107f 	mvn	r1, #127	; 0x7f
    8920:	ed9f6afd 	vldr	s12, [pc, #1012]	; 8d1c <V3D_AddVertexesToScene+0x438>
    8924:	e3a0203f 	mov	r2, #63	; 0x3f
    8928:	e1a030a3 	lsr	r3, r3, #1
    892c:	ee073a90 	vmov	s15, r3
    8930:	e1a080ac 	lsr	r8, ip, #1
    8934:	ee078a10 	vmov	s14, r8
    8938:	eef87ae7 	vcvt.f32.s32	s15, s15
    893c:	eddf5af7 	vldr	s11, [pc, #988]	; 8d20 <V3D_AddVertexesToScene+0x43c>
    8940:	eef86ac7 	vcvt.f32.s32	s13, s14
    8944:	e1a03208 	lsl	r3, r8, #4
    8948:	e5d0c000 	ldrb	ip, [r0]
    894c:	e6ff3073 	uxth	r3, r3
    8950:	e5c5c058 	strb	ip, [r5, #88]	; 0x58
    8954:	ee277a86 	vmul.f32	s14, s15, s12
    8958:	ee677aa5 	vmul.f32	s15, s15, s11
    895c:	ee666a86 	vmul.f32	s13, s13, s12
    8960:	e7e7c453 	ubfx	ip, r3, #8, #8
    8964:	e5c03000 	strb	r3, [r0]
    8968:	e5c0c001 	strb	ip, [r0, #1]
    896c:	eebc7ac7 	vcvt.u32.f32	s14, s14
    8970:	eefc7ae7 	vcvt.u32.f32	s15, s15
    8974:	eefc6ae6 	vcvt.u32.f32	s13, s13
    8978:	e5c01006 	strb	r1, [r0, #6]
    897c:	e5c0100a 	strb	r1, [r0, #10]
    8980:	e5c0100e 	strb	r1, [r0, #14]
    8984:	e5c02007 	strb	r2, [r0, #7]
    8988:	ee173a10 	vmov	r3, s14
    898c:	e5c0200b 	strb	r2, [r0, #11]
    8990:	ee16ca90 	vmov	ip, s13
    8994:	e5c0200f 	strb	r2, [r0, #15]
    8998:	e5c04004 	strb	r4, [r0, #4]
    899c:	e5c04005 	strb	r4, [r0, #5]
    89a0:	e6ffe073 	uxth	lr, r3
    89a4:	ee173a90 	vmov	r3, s15
    89a8:	e6ffc07c 	uxth	ip, ip
    89ac:	e5c04008 	strb	r4, [r0, #8]
    89b0:	e048600c 	sub	r6, r8, ip
    89b4:	e088c00c 	add	ip, r8, ip
    89b8:	e5c04009 	strb	r4, [r0, #9]
    89bc:	e6ff3073 	uxth	r3, r3
    89c0:	e1a06206 	lsl	r6, r6, #4
    89c4:	e04e7003 	sub	r7, lr, r3
    89c8:	e08ee003 	add	lr, lr, r3
    89cc:	e1a0c20c 	lsl	ip, ip, #4
    89d0:	e20680f0 	and	r8, r6, #240	; 0xf0
    89d4:	e1a07207 	lsl	r7, r7, #4
    89d8:	e1a0e20e 	lsl	lr, lr, #4
    89dc:	e20ea0f0 	and	sl, lr, #240	; 0xf0
    89e0:	e7e76456 	ubfx	r6, r6, #8, #8
    89e4:	e6ff7077 	uxth	r7, r7
    89e8:	e7e7e45e 	ubfx	lr, lr, #8, #8
    89ec:	e5c0400c 	strb	r4, [r0, #12]
    89f0:	e5c0400d 	strb	r4, [r0, #13]
    89f4:	e5c07002 	strb	r7, [r0, #2]
    89f8:	e7e77457 	ubfx	r7, r7, #8, #8
    89fc:	e5c0a01a 	strb	sl, [r0, #26]
    8a00:	e5c07003 	strb	r7, [r0, #3]
    8a04:	e20c70f0 	and	r7, ip, #240	; 0xf0
    8a08:	e5c04010 	strb	r4, [r0, #16]
    8a0c:	e7e7c45c 	ubfx	ip, ip, #8, #8
    8a10:	e5c0e01b 	strb	lr, [r0, #27]
    8a14:	e5c04011 	strb	r4, [r0, #17]
    8a18:	e5c04012 	strb	r4, [r0, #18]
    8a1c:	e5c04013 	strb	r4, [r0, #19]
    8a20:	e5c04014 	strb	r4, [r0, #20]
    8a24:	e5c04015 	strb	r4, [r0, #21]
    8a28:	e5c04016 	strb	r4, [r0, #22]
    8a2c:	e5c04017 	strb	r4, [r0, #23]
    8a30:	e5c08018 	strb	r8, [r0, #24]
    8a34:	e5c06019 	strb	r6, [r0, #25]
    8a38:	e5c0401c 	strb	r4, [r0, #28]
    8a3c:	e5c0101e 	strb	r1, [r0, #30]
    8a40:	e5c0201f 	strb	r2, [r0, #31]
    8a44:	e5c01022 	strb	r1, [r0, #34]	; 0x22
    8a48:	e5c02023 	strb	r2, [r0, #35]	; 0x23
    8a4c:	e5c0102e 	strb	r1, [r0, #46]	; 0x2e
    8a50:	e5c0202f 	strb	r2, [r0, #47]	; 0x2f
    8a54:	e5c01036 	strb	r1, [r0, #54]	; 0x36
    8a58:	e5c02037 	strb	r2, [r0, #55]	; 0x37
    8a5c:	e5c0103a 	strb	r1, [r0, #58]	; 0x3a
    8a60:	e5c0203b 	strb	r2, [r0, #59]	; 0x3b
    8a64:	e5c0c031 	strb	ip, [r0, #49]	; 0x31
    8a68:	e5c0a032 	strb	sl, [r0, #50]	; 0x32
    8a6c:	e5c0e033 	strb	lr, [r0, #51]	; 0x33
    8a70:	e5c0401d 	strb	r4, [r0, #29]
    8a74:	e5c04020 	strb	r4, [r0, #32]
    8a78:	e5c04021 	strb	r4, [r0, #33]	; 0x21
    8a7c:	e5c04024 	strb	r4, [r0, #36]	; 0x24
    8a80:	e5c04025 	strb	r4, [r0, #37]	; 0x25
    8a84:	e5c04026 	strb	r4, [r0, #38]	; 0x26
    8a88:	e5c04027 	strb	r4, [r0, #39]	; 0x27
    8a8c:	e5c04028 	strb	r4, [r0, #40]	; 0x28
    8a90:	e5c04029 	strb	r4, [r0, #41]	; 0x29
    8a94:	e5c0402a 	strb	r4, [r0, #42]	; 0x2a
    8a98:	e5c0402b 	strb	r4, [r0, #43]	; 0x2b
    8a9c:	e5c0402c 	strb	r4, [r0, #44]	; 0x2c
    8aa0:	e5c0402d 	strb	r4, [r0, #45]	; 0x2d
    8aa4:	e5c04034 	strb	r4, [r0, #52]	; 0x34
    8aa8:	e5c04035 	strb	r4, [r0, #53]	; 0x35
    8aac:	e5c04038 	strb	r4, [r0, #56]	; 0x38
    8ab0:	e5c04039 	strb	r4, [r0, #57]	; 0x39
    8ab4:	e5c0403c 	strb	r4, [r0, #60]	; 0x3c
    8ab8:	e5c07030 	strb	r7, [r0, #48]	; 0x30
    8abc:	e5c0403d 	strb	r4, [r0, #61]	; 0x3d
    8ac0:	e5c01042 	strb	r1, [r0, #66]	; 0x42
    8ac4:	e5c02043 	strb	r2, [r0, #67]	; 0x43
    8ac8:	e5c0403e 	strb	r4, [r0, #62]	; 0x3e
    8acc:	e5c0403f 	strb	r4, [r0, #63]	; 0x3f
    8ad0:	e5c04040 	strb	r4, [r0, #64]	; 0x40
    8ad4:	e5c04041 	strb	r4, [r0, #65]	; 0x41
    8ad8:	e5c04044 	strb	r4, [r0, #68]	; 0x44
    8adc:	e5c04045 	strb	r4, [r0, #69]	; 0x45
    8ae0:	e5c04046 	strb	r4, [r0, #70]	; 0x46
    8ae4:	e5c04047 	strb	r4, [r0, #71]	; 0x47
    8ae8:	ed9f7a8d 	vldr	s14, [pc, #564]	; 8d24 <V3D_AddVertexesToScene+0x440>
    8aec:	e1d5e0be 	ldrh	lr, [r5, #14]
    8af0:	e5c0104e 	strb	r1, [r0, #78]	; 0x4e
    8af4:	e5c0204f 	strb	r2, [r0, #79]	; 0x4f
    8af8:	e1a0e0ae 	lsr	lr, lr, #1
    8afc:	ee07ea90 	vmov	s15, lr
    8b00:	e5c01052 	strb	r1, [r0, #82]	; 0x52
    8b04:	eef87ae7 	vcvt.f32.s32	s15, s15
    8b08:	e5c02053 	strb	r2, [r0, #83]	; 0x53
    8b0c:	e5c08048 	strb	r8, [r0, #72]	; 0x48
    8b10:	e5c06049 	strb	r6, [r0, #73]	; 0x49
    8b14:	e5c0404c 	strb	r4, [r0, #76]	; 0x4c
    8b18:	ee677a87 	vmul.f32	s15, s15, s14
    8b1c:	e5c0404d 	strb	r4, [r0, #77]	; 0x4d
    8b20:	e5c04050 	strb	r4, [r0, #80]	; 0x50
    8b24:	e5c04051 	strb	r4, [r0, #81]	; 0x51
    8b28:	e5c04054 	strb	r4, [r0, #84]	; 0x54
    8b2c:	eefc7ae7 	vcvt.u32.f32	s15, s15
    8b30:	e5c04055 	strb	r4, [r0, #85]	; 0x55
    8b34:	e5c04056 	strb	r4, [r0, #86]	; 0x56
    8b38:	e5c04057 	strb	r4, [r0, #87]	; 0x57
    8b3c:	e5c04058 	strb	r4, [r0, #88]	; 0x58
    8b40:	e5c04059 	strb	r4, [r0, #89]	; 0x59
    8b44:	ee17ea90 	vmov	lr, s15
    8b48:	e5c0405a 	strb	r4, [r0, #90]	; 0x5a
    8b4c:	e5c0405b 	strb	r4, [r0, #91]	; 0x5b
    8b50:	e5c0405c 	strb	r4, [r0, #92]	; 0x5c
    8b54:	e6ffe07e 	uxth	lr, lr
    8b58:	e04ea003 	sub	sl, lr, r3
    8b5c:	e083300e 	add	r3, r3, lr
    8b60:	e1a0a20a 	lsl	sl, sl, #4
    8b64:	e1a03203 	lsl	r3, r3, #4
    8b68:	e20ae0f0 	and	lr, sl, #240	; 0xf0
    8b6c:	e5c0e04a 	strb	lr, [r0, #74]	; 0x4a
    8b70:	e7e7a45a 	ubfx	sl, sl, #8, #8
    8b74:	e5c0a04b 	strb	sl, [r0, #75]	; 0x4b
    8b78:	e5c0405d 	strb	r4, [r0, #93]	; 0x5d
    8b7c:	e5c0e07a 	strb	lr, [r0, #122]	; 0x7a
    8b80:	e5c0c079 	strb	ip, [r0, #121]	; 0x79
    8b84:	e5c0105e 	strb	r1, [r0, #94]	; 0x5e
    8b88:	e5c0205f 	strb	r2, [r0, #95]	; 0x5f
    8b8c:	e5c01066 	strb	r1, [r0, #102]	; 0x66
    8b90:	e5c02067 	strb	r2, [r0, #103]	; 0x67
    8b94:	e5c0106a 	strb	r1, [r0, #106]	; 0x6a
    8b98:	e5c0206b 	strb	r2, [r0, #107]	; 0x6b
    8b9c:	e5c01072 	strb	r1, [r0, #114]	; 0x72
    8ba0:	e5c02073 	strb	r2, [r0, #115]	; 0x73
    8ba4:	e5c08060 	strb	r8, [r0, #96]	; 0x60
    8ba8:	e20380f0 	and	r8, r3, #240	; 0xf0
    8bac:	e5c0a07b 	strb	sl, [r0, #123]	; 0x7b
    8bb0:	e7e73453 	ubfx	r3, r3, #8, #8
    8bb4:	e5c06061 	strb	r6, [r0, #97]	; 0x61
    8bb8:	e3a06003 	mov	r6, #3
    8bbc:	e5c03063 	strb	r3, [r0, #99]	; 0x63
    8bc0:	e5c07078 	strb	r7, [r0, #120]	; 0x78
    8bc4:	e5c04064 	strb	r4, [r0, #100]	; 0x64
    8bc8:	e5c04065 	strb	r4, [r0, #101]	; 0x65
    8bcc:	e5c04068 	strb	r4, [r0, #104]	; 0x68
    8bd0:	e5c04069 	strb	r4, [r0, #105]	; 0x69
    8bd4:	e5c0406c 	strb	r4, [r0, #108]	; 0x6c
    8bd8:	e5c0406d 	strb	r4, [r0, #109]	; 0x6d
    8bdc:	e5c0406e 	strb	r4, [r0, #110]	; 0x6e
    8be0:	e5c0406f 	strb	r4, [r0, #111]	; 0x6f
    8be4:	e5c04070 	strb	r4, [r0, #112]	; 0x70
    8be8:	e5c04071 	strb	r4, [r0, #113]	; 0x71
    8bec:	e5c04074 	strb	r4, [r0, #116]	; 0x74
    8bf0:	e5c04075 	strb	r4, [r0, #117]	; 0x75
    8bf4:	e5c04076 	strb	r4, [r0, #118]	; 0x76
    8bf8:	e5c04077 	strb	r4, [r0, #119]	; 0x77
    8bfc:	e5c0407c 	strb	r4, [r0, #124]	; 0x7c
    8c00:	e5c0407d 	strb	r4, [r0, #125]	; 0x7d
    8c04:	e5c08062 	strb	r8, [r0, #98]	; 0x62
    8c08:	e5c0107e 	strb	r1, [r0, #126]	; 0x7e
    8c0c:	e5c03093 	strb	r3, [r0, #147]	; 0x93
    8c10:	e5c0c091 	strb	ip, [r0, #145]	; 0x91
    8c14:	e5c0207f 	strb	r2, [r0, #127]	; 0x7f
    8c18:	e5c01082 	strb	r1, [r0, #130]	; 0x82
    8c1c:	e5c02083 	strb	r2, [r0, #131]	; 0x83
    8c20:	e5c01086 	strb	r1, [r0, #134]	; 0x86
    8c24:	e5c02087 	strb	r2, [r0, #135]	; 0x87
    8c28:	e5c01096 	strb	r1, [r0, #150]	; 0x96
    8c2c:	e5c02097 	strb	r2, [r0, #151]	; 0x97
    8c30:	e5c0109a 	strb	r1, [r0, #154]	; 0x9a
    8c34:	e5c0209b 	strb	r2, [r0, #155]	; 0x9b
    8c38:	e5c07090 	strb	r7, [r0, #144]	; 0x90
    8c3c:	e5c08092 	strb	r8, [r0, #146]	; 0x92
    8c40:	e5c04080 	strb	r4, [r0, #128]	; 0x80
    8c44:	e5c04081 	strb	r4, [r0, #129]	; 0x81
    8c48:	e5c04084 	strb	r4, [r0, #132]	; 0x84
    8c4c:	e5c04085 	strb	r4, [r0, #133]	; 0x85
    8c50:	e5c04088 	strb	r4, [r0, #136]	; 0x88
    8c54:	e5c04089 	strb	r4, [r0, #137]	; 0x89
    8c58:	e5c0408a 	strb	r4, [r0, #138]	; 0x8a
    8c5c:	e5c0408b 	strb	r4, [r0, #139]	; 0x8b
    8c60:	e5c0408c 	strb	r4, [r0, #140]	; 0x8c
    8c64:	e5c0408d 	strb	r4, [r0, #141]	; 0x8d
    8c68:	e5c0408e 	strb	r4, [r0, #142]	; 0x8e
    8c6c:	e5c0408f 	strb	r4, [r0, #143]	; 0x8f
    8c70:	e5c04094 	strb	r4, [r0, #148]	; 0x94
    8c74:	e5c04095 	strb	r4, [r0, #149]	; 0x95
    8c78:	e5c04098 	strb	r4, [r0, #152]	; 0x98
    8c7c:	e5c04099 	strb	r4, [r0, #153]	; 0x99
    8c80:	e5c0409c 	strb	r4, [r0, #156]	; 0x9c
    8c84:	e5c0409d 	strb	r4, [r0, #157]	; 0x9d
    8c88:	e5c0409e 	strb	r4, [r0, #158]	; 0x9e
    8c8c:	e5c0409f 	strb	r4, [r0, #159]	; 0x9f
    8c90:	e5c040a0 	strb	r4, [r0, #160]	; 0xa0
    8c94:	e5c040a1 	strb	r4, [r0, #161]	; 0xa1
    8c98:	e5c010a2 	strb	r1, [r0, #162]	; 0xa2
    8c9c:	e5c020a3 	strb	r2, [r0, #163]	; 0xa3
    8ca0:	e5c040a4 	strb	r4, [r0, #164]	; 0xa4
    8ca4:	e5c040a5 	strb	r4, [r0, #165]	; 0xa5
    8ca8:	e5c010a6 	strb	r1, [r0, #166]	; 0xa6
    8cac:	e5c020a7 	strb	r2, [r0, #167]	; 0xa7
    8cb0:	e585902c 	str	r9, [r5, #44]	; 0x2c
    8cb4:	e5950028 	ldr	r0, [r5, #40]	; 0x28
    8cb8:	e28000a8 	add	r0, r0, #168	; 0xa8
    8cbc:	e5850000 	str	r0, [r5]
    8cc0:	e280007f 	add	r0, r0, #127	; 0x7f
    8cc4:	e0000001 	and	r0, r0, r1
    8cc8:	e5850030 	str	r0, [r5, #48]	; 0x30
    8ccc:	ebfffde6 	bl	846c <GPUaddrToARMaddr>
    8cd0:	e1a03000 	mov	r3, r0
    8cd4:	e3a0e001 	mov	lr, #1
    8cd8:	e3a0c004 	mov	ip, #4
    8cdc:	e3a01005 	mov	r1, #5
    8ce0:	e3a02006 	mov	r2, #6
    8ce4:	e5c34000 	strb	r4, [r3]
    8ce8:	e3a00002 	mov	r0, #2
    8cec:	e5c36003 	strb	r6, [r3, #3]
    8cf0:	e3a04009 	mov	r4, #9
    8cf4:	e5c30002 	strb	r0, [r3, #2]
    8cf8:	e1a0000e 	mov	r0, lr
    8cfc:	e5c3e001 	strb	lr, [r3, #1]
    8d00:	e5c3c004 	strb	ip, [r3, #4]
    8d04:	e5c3c006 	strb	ip, [r3, #6]
    8d08:	e5c31005 	strb	r1, [r3, #5]
    8d0c:	e5c31008 	strb	r1, [r3, #8]
    8d10:	e5c32007 	strb	r2, [r3, #7]
    8d14:	e5852038 	str	r2, [r5, #56]	; 0x38
    8d18:	ea000002 	b	8d28 <V3D_AddVertexesToScene+0x444>
    8d1c:	3ecccccd 	.word	0x3ecccccd
    8d20:	3e99999a 	.word	0x3e99999a
    8d24:	3faccccd 	.word	0x3faccccd
    8d28:	e5953030 	ldr	r3, [r5, #48]	; 0x30
    8d2c:	e5854034 	str	r4, [r5, #52]	; 0x34
    8d30:	e0833004 	add	r3, r3, r4
    8d34:	e5853000 	str	r3, [r5]
    8d38:	e8bd87f0 	pop	{r4, r5, r6, r7, r8, r9, sl, pc}

00008d3c <V3D_AddShadderToScene>:
    8d3c:	e92d4070 	push	{r4, r5, r6, lr}
    8d40:	e2504000 	subs	r4, r0, #0
    8d44:	1a000001 	bne	8d50 <V3D_AddShadderToScene+0x14>
    8d48:	e1a00004 	mov	r0, r4
    8d4c:	e8bd8070 	pop	{r4, r5, r6, pc}
    8d50:	e5940000 	ldr	r0, [r4]
    8d54:	e1a05002 	mov	r5, r2
    8d58:	e1a06001 	mov	r6, r1
    8d5c:	e280007f 	add	r0, r0, #127	; 0x7f
    8d60:	e3c0007f 	bic	r0, r0, #127	; 0x7f
    8d64:	e5840010 	str	r0, [r4, #16]
    8d68:	ebfffdbf 	bl	846c <GPUaddrToARMaddr>
    8d6c:	e3550000 	cmp	r5, #0
    8d70:	0a00000e 	beq	8db0 <V3D_AddShadderToScene+0x74>
    8d74:	e1a05105 	lsl	r5, r5, #2
    8d78:	e1a0c006 	mov	ip, r6
    8d7c:	e0862005 	add	r2, r6, r5
    8d80:	e0406006 	sub	r6, r0, r6
    8d84:	e086100c 	add	r1, r6, ip
    8d88:	e49c3004 	ldr	r3, [ip], #4
    8d8c:	e152000c 	cmp	r2, ip
    8d90:	e7e7e453 	ubfx	lr, r3, #8, #8
    8d94:	e7e70853 	ubfx	r0, r3, #16, #8
    8d98:	e5c13000 	strb	r3, [r1]
    8d9c:	e7e73c53 	ubfx	r3, r3, #24, #8
    8da0:	e5c1e001 	strb	lr, [r1, #1]
    8da4:	e5c10002 	strb	r0, [r1, #2]
    8da8:	e5c13003 	strb	r3, [r1, #3]
    8dac:	1afffff4 	bne	8d84 <V3D_AddShadderToScene+0x48>
    8db0:	e5940010 	ldr	r0, [r4, #16]
    8db4:	e0855000 	add	r5, r5, r0
    8db8:	e5845000 	str	r5, [r4]
    8dbc:	e285507f 	add	r5, r5, #127	; 0x7f
    8dc0:	e3c5007f 	bic	r0, r5, #127	; 0x7f
    8dc4:	e5840014 	str	r0, [r4, #20]
    8dc8:	ebfffda7 	bl	846c <GPUaddrToARMaddr>
    8dcc:	e1a03000 	mov	r3, r0
    8dd0:	e3a02001 	mov	r2, #1
    8dd4:	e3a01018 	mov	r1, #24
    8dd8:	e3a0c003 	mov	ip, #3
    8ddc:	e3e00033 	mvn	r0, #51	; 0x33
    8de0:	e5c31001 	strb	r1, [r3, #1]
    8de4:	e3a01000 	mov	r1, #0
    8de8:	e5c30002 	strb	r0, [r3, #2]
    8dec:	e1a00002 	mov	r0, r2
    8df0:	e5c3c003 	strb	ip, [r3, #3]
    8df4:	e5c32000 	strb	r2, [r3]
    8df8:	e5942010 	ldr	r2, [r4, #16]
    8dfc:	e5c32004 	strb	r2, [r3, #4]
    8e00:	e5c31008 	strb	r1, [r3, #8]
    8e04:	e5c31009 	strb	r1, [r3, #9]
    8e08:	e7e7c452 	ubfx	ip, r2, #8, #8
    8e0c:	e5c3100a 	strb	r1, [r3, #10]
    8e10:	e5c3c005 	strb	ip, [r3, #5]
    8e14:	e7e7c852 	ubfx	ip, r2, #16, #8
    8e18:	e5c3100b 	strb	r1, [r3, #11]
    8e1c:	e7e72c52 	ubfx	r2, r2, #24, #8
    8e20:	e5c3c006 	strb	ip, [r3, #6]
    8e24:	e5c32007 	strb	r2, [r3, #7]
    8e28:	e5942028 	ldr	r2, [r4, #40]	; 0x28
    8e2c:	e5c3200c 	strb	r2, [r3, #12]
    8e30:	e7e71452 	ubfx	r1, r2, #8, #8
    8e34:	e5c3100d 	strb	r1, [r3, #13]
    8e38:	e7e71852 	ubfx	r1, r2, #16, #8
    8e3c:	e7e72c52 	ubfx	r2, r2, #24, #8
    8e40:	e5c3100e 	strb	r1, [r3, #14]
    8e44:	e5c3200f 	strb	r2, [r3, #15]
    8e48:	e5943014 	ldr	r3, [r4, #20]
    8e4c:	e2833010 	add	r3, r3, #16
    8e50:	e5843000 	str	r3, [r4]
    8e54:	e8bd8070 	pop	{r4, r5, r6, pc}

00008e58 <V3D_SetupRenderControl>:
    8e58:	e92d47f0 	push	{r4, r5, r6, r7, r8, r9, sl, lr}
    8e5c:	e2504000 	subs	r4, r0, #0
    8e60:	1a000001 	bne	8e6c <V3D_SetupRenderControl+0x14>
    8e64:	e1a00004 	mov	r0, r4
    8e68:	e8bd87f0 	pop	{r4, r5, r6, r7, r8, r9, sl, pc}
    8e6c:	e5940000 	ldr	r0, [r4]
    8e70:	e1a05001 	mov	r5, r1
    8e74:	e3a07073 	mov	r7, #115	; 0x73
    8e78:	e280007f 	add	r0, r0, #127	; 0x7f
    8e7c:	e3c0007f 	bic	r0, r0, #127	; 0x7f
    8e80:	e5840020 	str	r0, [r4, #32]
    8e84:	ebfffd78 	bl	846c <GPUaddrToARMaddr>
    8e88:	e3a0e000 	mov	lr, #0
    8e8c:	e5c0500f 	strb	r5, [r0, #15]
    8e90:	e7e71455 	ubfx	r1, r5, #8, #8
    8e94:	e7e72855 	ubfx	r2, r5, #16, #8
    8e98:	e5c01010 	strb	r1, [r0, #16]
    8e9c:	e5c02011 	strb	r2, [r0, #17]
    8ea0:	e3a03071 	mov	r3, #113	; 0x71
    8ea4:	e5c0e001 	strb	lr, [r0, #1]
    8ea8:	e7e75c55 	ubfx	r5, r5, #24, #8
    8eac:	e5c0300e 	strb	r3, [r0, #14]
    8eb0:	e3a0c072 	mov	ip, #114	; 0x72
    8eb4:	e5c05012 	strb	r5, [r0, #18]
    8eb8:	e3e03000 	mvn	r3, #0
    8ebc:	e5c0c000 	strb	ip, [r0]
    8ec0:	e3a01004 	mov	r1, #4
    8ec4:	e5c0e002 	strb	lr, [r0, #2]
    8ec8:	e3a0201c 	mov	r2, #28
    8ecc:	e5c0e003 	strb	lr, [r0, #3]
    8ed0:	e2805023 	add	r5, r0, #35	; 0x23
    8ed4:	e5c0e005 	strb	lr, [r0, #5]
    8ed8:	e5c0e006 	strb	lr, [r0, #6]
    8edc:	e5c0e007 	strb	lr, [r0, #7]
    8ee0:	e5c0e009 	strb	lr, [r0, #9]
    8ee4:	e5c0e00a 	strb	lr, [r0, #10]
    8ee8:	e5c0e00b 	strb	lr, [r0, #11]
    8eec:	e5c0e00c 	strb	lr, [r0, #12]
    8ef0:	e5c0e00d 	strb	lr, [r0, #13]
    8ef4:	e5c03004 	strb	r3, [r0, #4]
    8ef8:	e5c03008 	strb	r3, [r0, #8]
    8efc:	e1d430bc 	ldrh	r3, [r4, #12]
    8f00:	e5c03013 	strb	r3, [r0, #19]
    8f04:	e7e73453 	ubfx	r3, r3, #8, #8
    8f08:	e5c03014 	strb	r3, [r0, #20]
    8f0c:	e1d430be 	ldrh	r3, [r4, #14]
    8f10:	e5c03015 	strb	r3, [r0, #21]
    8f14:	e5c0e018 	strb	lr, [r0, #24]
    8f18:	e7e73453 	ubfx	r3, r3, #8, #8
    8f1c:	e5c0e01a 	strb	lr, [r0, #26]
    8f20:	e5c03016 	strb	r3, [r0, #22]
    8f24:	e5c0e01b 	strb	lr, [r0, #27]
    8f28:	e5c0e01d 	strb	lr, [r0, #29]
    8f2c:	e5c01017 	strb	r1, [r0, #23]
    8f30:	e5c0201c 	strb	r2, [r0, #28]
    8f34:	e5c07019 	strb	r7, [r0, #25]
    8f38:	e5c0e01e 	strb	lr, [r0, #30]
    8f3c:	e5c0e01f 	strb	lr, [r0, #31]
    8f40:	e5c0e020 	strb	lr, [r0, #32]
    8f44:	e5c0e021 	strb	lr, [r0, #33]	; 0x21
    8f48:	e5c0e022 	strb	lr, [r0, #34]	; 0x22
    8f4c:	e5943018 	ldr	r3, [r4, #24]
    8f50:	e153000e 	cmp	r3, lr
    8f54:	0a00002a 	beq	9004 <V3D_SetupRenderControl+0x1ac>
    8f58:	e594201c 	ldr	r2, [r4, #28]
    8f5c:	e3a08011 	mov	r8, #17
    8f60:	e3520000 	cmp	r2, #0
    8f64:	12853009 	addne	r3, r5, #9
    8f68:	16ef607e 	uxtbne	r6, lr
    8f6c:	13a01000 	movne	r1, #0
    8f70:	0a000020 	beq	8ff8 <V3D_SetupRenderControl+0x1a0>
    8f74:	e5437009 	strb	r7, [r3, #-9]
    8f78:	e3a0c018 	mov	ip, #24
    8f7c:	e5436008 	strb	r6, [r3, #-8]
    8f80:	e1a05003 	mov	r5, r3
    8f84:	e5431007 	strb	r1, [r3, #-7]
    8f88:	e5438006 	strb	r8, [r3, #-6]
    8f8c:	e5949018 	ldr	r9, [r4, #24]
    8f90:	e5942048 	ldr	r2, [r4, #72]	; 0x48
    8f94:	e029e199 	mla	r9, r9, r1, lr
    8f98:	e0822289 	add	r2, r2, r9, lsl #5
    8f9c:	e5432005 	strb	r2, [r3, #-5]
    8fa0:	e7e7a452 	ubfx	sl, r2, #8, #8
    8fa4:	e7e79852 	ubfx	r9, r2, #16, #8
    8fa8:	e543a004 	strb	sl, [r3, #-4]
    8fac:	e7e72c52 	ubfx	r2, r2, #24, #8
    8fb0:	e5439003 	strb	r9, [r3, #-3]
    8fb4:	e5432002 	strb	r2, [r3, #-2]
    8fb8:	e5942018 	ldr	r2, [r4, #24]
    8fbc:	e2422001 	sub	r2, r2, #1
    8fc0:	e152000e 	cmp	r2, lr
    8fc4:	1a000004 	bne	8fdc <V3D_SetupRenderControl+0x184>
    8fc8:	e594c01c 	ldr	ip, [r4, #28]
    8fcc:	e24cc001 	sub	ip, ip, #1
    8fd0:	e15c0001 	cmp	ip, r1
    8fd4:	03a0c019 	moveq	ip, #25
    8fd8:	13a0c018 	movne	ip, #24
    8fdc:	e543c001 	strb	ip, [r3, #-1]
    8fe0:	e2811001 	add	r1, r1, #1
    8fe4:	e2833009 	add	r3, r3, #9
    8fe8:	e594201c 	ldr	r2, [r4, #28]
    8fec:	e1520001 	cmp	r2, r1
    8ff0:	8affffdf 	bhi	8f74 <V3D_SetupRenderControl+0x11c>
    8ff4:	e5943018 	ldr	r3, [r4, #24]
    8ff8:	e28ee001 	add	lr, lr, #1
    8ffc:	e15e0003 	cmp	lr, r3
    9000:	3affffd6 	bcc	8f60 <V3D_SetupRenderControl+0x108>
    9004:	e5942020 	ldr	r2, [r4, #32]
    9008:	e0453000 	sub	r3, r5, r0
    900c:	e3a00001 	mov	r0, #1
    9010:	e0833002 	add	r3, r3, r2
    9014:	e5843000 	str	r3, [r4]
    9018:	e5843024 	str	r3, [r4, #36]	; 0x24
    901c:	e8bd87f0 	pop	{r4, r5, r6, r7, r8, r9, sl, pc}

00009020 <V3D_SetupBinningConfig>:
    9020:	e92d4070 	push	{r4, r5, r6, lr}
    9024:	e2504000 	subs	r4, r0, #0
    9028:	1a000001 	bne	9034 <V3D_SetupBinningConfig+0x14>
    902c:	e1a00004 	mov	r0, r4
    9030:	e8bd8070 	pop	{r4, r5, r6, pc}
    9034:	e5940050 	ldr	r0, [r4, #80]	; 0x50
    9038:	e3a05006 	mov	r5, #6
    903c:	ebfffd0a 	bl	846c <GPUaddrToARMaddr>
    9040:	e3a02070 	mov	r2, #112	; 0x70
    9044:	e5c02000 	strb	r2, [r0]
    9048:	e1a03000 	mov	r3, r0
    904c:	e3a0e038 	mov	lr, #56	; 0x38
    9050:	e3a0c032 	mov	ip, #50	; 0x32
    9054:	e5942048 	ldr	r2, [r4, #72]	; 0x48
    9058:	e5c02001 	strb	r2, [r0, #1]
    905c:	e7e71452 	ubfx	r1, r2, #8, #8
    9060:	e5c01002 	strb	r1, [r0, #2]
    9064:	e7e71852 	ubfx	r1, r2, #16, #8
    9068:	e7e72c52 	ubfx	r2, r2, #24, #8
    906c:	e5c01003 	strb	r1, [r0, #3]
    9070:	e5c02004 	strb	r2, [r0, #4]
    9074:	e5942040 	ldr	r2, [r4, #64]	; 0x40
    9078:	e5c02005 	strb	r2, [r0, #5]
    907c:	e7e71452 	ubfx	r1, r2, #8, #8
    9080:	e5c01006 	strb	r1, [r0, #6]
    9084:	e7e71852 	ubfx	r1, r2, #16, #8
    9088:	e7e72c52 	ubfx	r2, r2, #24, #8
    908c:	e5c01007 	strb	r1, [r0, #7]
    9090:	e5c02008 	strb	r2, [r0, #8]
    9094:	e5942044 	ldr	r2, [r4, #68]	; 0x44
    9098:	e5c02009 	strb	r2, [r0, #9]
    909c:	e7e71452 	ubfx	r1, r2, #8, #8
    90a0:	e5c0100a 	strb	r1, [r0, #10]
    90a4:	e7e71852 	ubfx	r1, r2, #16, #8
    90a8:	e7e72c52 	ubfx	r2, r2, #24, #8
    90ac:	e5c0100b 	strb	r1, [r0, #11]
    90b0:	e3a01066 	mov	r1, #102	; 0x66
    90b4:	e5c0200c 	strb	r2, [r0, #12]
    90b8:	e5942018 	ldr	r2, [r4, #24]
    90bc:	e5c0200d 	strb	r2, [r0, #13]
    90c0:	e3a00004 	mov	r0, #4
    90c4:	e594201c 	ldr	r2, [r4, #28]
    90c8:	e5c3200e 	strb	r2, [r3, #14]
    90cc:	e3a02000 	mov	r2, #0
    90d0:	e5c35010 	strb	r5, [r3, #16]
    90d4:	e5c3e011 	strb	lr, [r3, #17]
    90d8:	e3a0e060 	mov	lr, #96	; 0x60
    90dc:	e5c3c012 	strb	ip, [r3, #18]
    90e0:	e3a0c003 	mov	ip, #3
    90e4:	e5c3000f 	strb	r0, [r3, #15]
    90e8:	e5c32014 	strb	r2, [r3, #20]
    90ec:	e5c32015 	strb	r2, [r3, #21]
    90f0:	e5c32016 	strb	r2, [r3, #22]
    90f4:	e5c32017 	strb	r2, [r3, #23]
    90f8:	e5c31013 	strb	r1, [r3, #19]
    90fc:	e1d410bc 	ldrh	r1, [r4, #12]
    9100:	e5c31018 	strb	r1, [r3, #24]
    9104:	e7e71451 	ubfx	r1, r1, #8, #8
    9108:	e5c31019 	strb	r1, [r3, #25]
    910c:	e1d410be 	ldrh	r1, [r4, #14]
    9110:	e5c3101a 	strb	r1, [r3, #26]
    9114:	e5c3201e 	strb	r2, [r3, #30]
    9118:	e5c32021 	strb	r2, [r3, #33]	; 0x21
    911c:	e7e71451 	ubfx	r1, r1, #8, #8
    9120:	e5c32022 	strb	r2, [r3, #34]	; 0x22
    9124:	e5c3101b 	strb	r1, [r3, #27]
    9128:	e3a01002 	mov	r1, #2
    912c:	e5c32023 	strb	r2, [r3, #35]	; 0x23
    9130:	e5c32024 	strb	r2, [r3, #36]	; 0x24
    9134:	e5c3e01c 	strb	lr, [r3, #28]
    9138:	e3a0e005 	mov	lr, #5
    913c:	e5c3c01d 	strb	ip, [r3, #29]
    9140:	e3a0c067 	mov	ip, #103	; 0x67
    9144:	e5c3101f 	strb	r1, [r3, #31]
    9148:	e3a01041 	mov	r1, #65	; 0x41
    914c:	e5c3c020 	strb	ip, [r3, #32]
    9150:	e3a0c020 	mov	ip, #32
    9154:	e5c31025 	strb	r1, [r3, #37]	; 0x25
    9158:	e5941014 	ldr	r1, [r4, #20]
    915c:	e5c31026 	strb	r1, [r3, #38]	; 0x26
    9160:	e5c3002b 	strb	r0, [r3, #43]	; 0x2b
    9164:	e5c3c02a 	strb	ip, [r3, #42]	; 0x2a
    9168:	e7e70451 	ubfx	r0, r1, #8, #8
    916c:	e5c30027 	strb	r0, [r3, #39]	; 0x27
    9170:	e7e70851 	ubfx	r0, r1, #16, #8
    9174:	e7e71c51 	ubfx	r1, r1, #24, #8
    9178:	e5c30028 	strb	r0, [r3, #40]	; 0x28
    917c:	e5c31029 	strb	r1, [r3, #41]	; 0x29
    9180:	e3a0c001 	mov	ip, #1
    9184:	e5941034 	ldr	r1, [r4, #52]	; 0x34
    9188:	e5c3102c 	strb	r1, [r3, #44]	; 0x2c
    918c:	e7e70451 	ubfx	r0, r1, #8, #8
    9190:	e5c3002d 	strb	r0, [r3, #45]	; 0x2d
    9194:	e7e70851 	ubfx	r0, r1, #16, #8
    9198:	e7e71c51 	ubfx	r1, r1, #24, #8
    919c:	e5c3002e 	strb	r0, [r3, #46]	; 0x2e
    91a0:	e5c3102f 	strb	r1, [r3, #47]	; 0x2f
    91a4:	e5941030 	ldr	r1, [r4, #48]	; 0x30
    91a8:	e5c31030 	strb	r1, [r3, #48]	; 0x30
    91ac:	e7e70451 	ubfx	r0, r1, #8, #8
    91b0:	e5c30031 	strb	r0, [r3, #49]	; 0x31
    91b4:	e7e70851 	ubfx	r0, r1, #16, #8
    91b8:	e7e71c51 	ubfx	r1, r1, #24, #8
    91bc:	e5c30032 	strb	r0, [r3, #50]	; 0x32
    91c0:	e5c31033 	strb	r1, [r3, #51]	; 0x33
    91c4:	e5941038 	ldr	r1, [r4, #56]	; 0x38
    91c8:	e5c31034 	strb	r1, [r3, #52]	; 0x34
    91cc:	e7e70451 	ubfx	r0, r1, #8, #8
    91d0:	e5c30035 	strb	r0, [r3, #53]	; 0x35
    91d4:	e5c3203a 	strb	r2, [r3, #58]	; 0x3a
    91d8:	e7e72851 	ubfx	r2, r1, #16, #8
    91dc:	e5c3e038 	strb	lr, [r3, #56]	; 0x38
    91e0:	e7e71c51 	ubfx	r1, r1, #24, #8
    91e4:	e5c32036 	strb	r2, [r3, #54]	; 0x36
    91e8:	e1a0000c 	mov	r0, ip
    91ec:	e5c31037 	strb	r1, [r3, #55]	; 0x37
    91f0:	e5c3c039 	strb	ip, [r3, #57]	; 0x39
    91f4:	e5943050 	ldr	r3, [r4, #80]	; 0x50
    91f8:	e283303b 	add	r3, r3, #59	; 0x3b
    91fc:	e5843054 	str	r3, [r4, #84]	; 0x54
    9200:	e8bd8070 	pop	{r4, r5, r6, pc}

00009204 <V3D_RenderScene>:
    9204:	e3500000 	cmp	r0, #0
    9208:	012fff1e 	bxeq	lr
    920c:	e30e2ebc 	movw	r2, #61116	; 0xeebc
    9210:	e3402000 	movt	r2, #0
    9214:	e52de004 	push	{lr}		; (str lr, [sp, #-4]!)
    9218:	e3a0e004 	mov	lr, #4
    921c:	e3001f0f 	movw	r1, #3855	; 0xf0f
    9220:	e3401f0f 	movt	r1, #3855	; 0xf0f
    9224:	e5923000 	ldr	r3, [r2]
    9228:	e3a0c020 	mov	ip, #32
    922c:	e2833503 	add	r3, r3, #12582912	; 0xc00000
    9230:	e583e020 	str	lr, [r3, #32]
    9234:	e5923000 	ldr	r3, [r2]
    9238:	e2833503 	add	r3, r3, #12582912	; 0xc00000
    923c:	e5831024 	str	r1, [r3, #36]	; 0x24
    9240:	e5923000 	ldr	r3, [r2]
    9244:	e2833503 	add	r3, r3, #12582912	; 0xc00000
    9248:	e583c100 	str	ip, [r3, #256]	; 0x100
    924c:	e592c000 	ldr	ip, [r2]
    9250:	e28cc503 	add	ip, ip, #12582912	; 0xc00000
    9254:	e28c1c01 	add	r1, ip, #256	; 0x100
    9258:	e5913000 	ldr	r3, [r1]
    925c:	e3130020 	tst	r3, #32
    9260:	1afffffc 	bne	9258 <V3D_RenderScene+0x54>
    9264:	e3a03001 	mov	r3, #1
    9268:	e58c3134 	str	r3, [ip, #308]	; 0x134
    926c:	e5923000 	ldr	r3, [r2]
    9270:	e5901050 	ldr	r1, [r0, #80]	; 0x50
    9274:	e2833503 	add	r3, r3, #12582912	; 0xc00000
    9278:	e5831110 	str	r1, [r3, #272]	; 0x110
    927c:	e5923000 	ldr	r3, [r2]
    9280:	e5901054 	ldr	r1, [r0, #84]	; 0x54
    9284:	e2833503 	add	r3, r3, #12582912	; 0xc00000
    9288:	e5831108 	str	r1, [r3, #264]	; 0x108
    928c:	e592c000 	ldr	ip, [r2]
    9290:	e28cc503 	add	ip, ip, #12582912	; 0xc00000
    9294:	e28c1f4d 	add	r1, ip, #308	; 0x134
    9298:	e5913000 	ldr	r3, [r1]
    929c:	e3530000 	cmp	r3, #0
    92a0:	0afffffc 	beq	9298 <V3D_RenderScene+0x94>
    92a4:	e3a03020 	mov	r3, #32
    92a8:	e58c3104 	str	r3, [ip, #260]	; 0x104
    92ac:	e592c000 	ldr	ip, [r2]
    92b0:	e28cc503 	add	ip, ip, #12582912	; 0xc00000
    92b4:	e28c1f41 	add	r1, ip, #260	; 0x104
    92b8:	e5913000 	ldr	r3, [r1]
    92bc:	e3130020 	tst	r3, #32
    92c0:	1afffffc 	bne	92b8 <V3D_RenderScene+0xb4>
    92c4:	e3a03001 	mov	r3, #1
    92c8:	e58c3138 	str	r3, [ip, #312]	; 0x138
    92cc:	e5923000 	ldr	r3, [r2]
    92d0:	e5901020 	ldr	r1, [r0, #32]
    92d4:	e2833503 	add	r3, r3, #12582912	; 0xc00000
    92d8:	e5831114 	str	r1, [r3, #276]	; 0x114
    92dc:	e5923000 	ldr	r3, [r2]
    92e0:	e5901024 	ldr	r1, [r0, #36]	; 0x24
    92e4:	e2833503 	add	r3, r3, #12582912	; 0xc00000
    92e8:	e583110c 	str	r1, [r3, #268]	; 0x10c
    92ec:	e5922000 	ldr	r2, [r2]
    92f0:	e2822503 	add	r2, r2, #12582912	; 0xc00000
    92f4:	e2822f4e 	add	r2, r2, #312	; 0x138
    92f8:	e5923000 	ldr	r3, [r2]
    92fc:	e3530000 	cmp	r3, #0
    9300:	0afffffc 	beq	92f8 <V3D_RenderScene+0xf4>
    9304:	e49df004 	pop	{pc}		; (ldr pc, [sp], #4)

00009308 <prn_to_buf>:
    9308:	e30e3f30 	movw	r3, #61232	; 0xef30
    930c:	e3403000 	movt	r3, #0
    9310:	e30e2ee0 	movw	r2, #61152	; 0xeee0
    9314:	e3402000 	movt	r2, #0
    9318:	e593c000 	ldr	ip, [r3]
    931c:	e5922000 	ldr	r2, [r2]
    9320:	e15c0002 	cmp	ip, r2
    9324:	b28cc001 	addlt	ip, ip, #1
    9328:	b583c000 	strlt	ip, [r3]
    932c:	b5912000 	ldrlt	r2, [r1]
    9330:	b4c20001 	strblt	r0, [r2], #1
    9334:	b5812000 	strlt	r2, [r1]
    9338:	e12fff1e 	bx	lr

0000933c <prn_to_func>:
    933c:	e92d4070 	push	{r4, r5, r6, lr}
    9340:	e30e3ee0 	movw	r3, #61152	; 0xeee0
    9344:	e3403000 	movt	r3, #0
    9348:	e30e4f30 	movw	r4, #61232	; 0xef30
    934c:	e3404000 	movt	r4, #0
    9350:	e1a05000 	mov	r5, r0
    9354:	e5933000 	ldr	r3, [r3]
    9358:	e5942000 	ldr	r2, [r4]
    935c:	e1520003 	cmp	r2, r3
    9360:	aa000004 	bge	9378 <prn_to_func+0x3c>
    9364:	e6ef0070 	uxtb	r0, r0
    9368:	e12fff31 	blx	r1
    936c:	e5943000 	ldr	r3, [r4]
    9370:	e2833001 	add	r3, r3, #1
    9374:	e5843000 	str	r3, [r4]
    9378:	e1a00005 	mov	r0, r5
    937c:	e8bd8070 	pop	{r4, r5, r6, pc}

00009380 <_doprnt.constprop.0>:
    9380:	e92d4ff0 	push	{r4, r5, r6, r7, r8, r9, sl, fp, lr}
    9384:	e1a0b000 	mov	fp, r0
    9388:	e24dd07c 	sub	sp, sp, #124	; 0x7c
    938c:	e5d00000 	ldrb	r0, [r0]
    9390:	e3500000 	cmp	r0, #0
    9394:	e58d1004 	str	r1, [sp, #4]
    9398:	0a000076 	beq	9578 <_doprnt.constprop.0+0x1f8>
    939c:	e30e6ee0 	movw	r6, #61152	; 0xeee0
    93a0:	e3406000 	movt	r6, #0
    93a4:	e30e8f30 	movw	r8, #61232	; 0xef30
    93a8:	e3408000 	movt	r8, #0
    93ac:	e30d3ce4 	movw	r3, #56548	; 0xdce4
    93b0:	e3403000 	movt	r3, #0
    93b4:	e1a04002 	mov	r4, r2
    93b8:	e3a0a000 	mov	sl, #0
    93bc:	e1a09006 	mov	r9, r6
    93c0:	e58d3018 	str	r3, [sp, #24]
    93c4:	ea00000b 	b	93f8 <_doprnt.constprop.0+0x78>
    93c8:	e5981000 	ldr	r1, [r8]
    93cc:	e5992000 	ldr	r2, [r9]
    93d0:	e1510002 	cmp	r1, r2
    93d4:	aa000003 	bge	93e8 <_doprnt.constprop.0+0x68>
    93d8:	e12fff34 	blx	r4
    93dc:	e5982000 	ldr	r2, [r8]
    93e0:	e2822001 	add	r2, r2, #1
    93e4:	e5882000 	str	r2, [r8]
    93e8:	e28aa001 	add	sl, sl, #1
    93ec:	e5db0000 	ldrb	r0, [fp]
    93f0:	e3500000 	cmp	r0, #0
    93f4:	0a000060 	beq	957c <_doprnt.constprop.0+0x1fc>
    93f8:	e3500025 	cmp	r0, #37	; 0x25
    93fc:	128bb001 	addne	fp, fp, #1
    9400:	1afffff0 	bne	93c8 <_doprnt.constprop.0+0x48>
    9404:	e5db2001 	ldrb	r2, [fp, #1]
    9408:	e28bc001 	add	ip, fp, #1
    940c:	e3520025 	cmp	r2, #37	; 0x25
    9410:	028bb002 	addeq	fp, fp, #2
    9414:	0affffeb 	beq	93c8 <_doprnt.constprop.0+0x48>
    9418:	e3a0e000 	mov	lr, #0
    941c:	e3a03020 	mov	r3, #32
    9420:	e1a0b00c 	mov	fp, ip
    9424:	e352002d 	cmp	r2, #45	; 0x2d
    9428:	e58de008 	str	lr, [sp, #8]
    942c:	e58d3000 	str	r3, [sp]
    9430:	0a00004b 	beq	9564 <_doprnt.constprop.0+0x1e4>
    9434:	e3520030 	cmp	r2, #48	; 0x30
    9438:	0a000045 	beq	9554 <_doprnt.constprop.0+0x1d4>
    943c:	e3520023 	cmp	r2, #35	; 0x23
    9440:	0a00004a 	beq	9570 <_doprnt.constprop.0+0x1f0>
    9444:	e352002a 	cmp	r2, #42	; 0x2a
    9448:	1a00004e 	bne	9588 <_doprnt.constprop.0+0x208>
    944c:	e59d1004 	ldr	r1, [sp, #4]
    9450:	e4916004 	ldr	r6, [r1], #4
    9454:	e3560000 	cmp	r6, #0
    9458:	ba000165 	blt	99f4 <_doprnt.constprop.0+0x674>
    945c:	e5db2001 	ldrb	r2, [fp, #1]
    9460:	e28bb001 	add	fp, fp, #1
    9464:	e58d1004 	str	r1, [sp, #4]
    9468:	e59d3008 	ldr	r3, [sp, #8]
    946c:	e3530000 	cmp	r3, #0
    9470:	e2233001 	eor	r3, r3, #1
    9474:	e58d3010 	str	r3, [sp, #16]
    9478:	e59d3000 	ldr	r3, [sp]
    947c:	13a03020 	movne	r3, #32
    9480:	e58d3000 	str	r3, [sp]
    9484:	e352002e 	cmp	r2, #46	; 0x2e
    9488:	13e03000 	mvnne	r3, #0
    948c:	0a000050 	beq	95d4 <_doprnt.constprop.0+0x254>
    9490:	e352006c 	cmp	r2, #108	; 0x6c
    9494:	0a00004a 	beq	95c4 <_doprnt.constprop.0+0x244>
    9498:	e3520068 	cmp	r2, #104	; 0x68
    949c:	13a05002 	movne	r5, #2
    94a0:	1a000006 	bne	94c0 <_doprnt.constprop.0+0x140>
    94a4:	e5db2001 	ldrb	r2, [fp, #1]
    94a8:	e3520068 	cmp	r2, #104	; 0x68
    94ac:	128bb001 	addne	fp, fp, #1
    94b0:	13a05001 	movne	r5, #1
    94b4:	03a05000 	moveq	r5, #0
    94b8:	05db2002 	ldrbeq	r2, [fp, #2]
    94bc:	028bb002 	addeq	fp, fp, #2
    94c0:	e2422058 	sub	r2, r2, #88	; 0x58
    94c4:	e3520020 	cmp	r2, #32
    94c8:	979ff102 	ldrls	pc, [pc, r2, lsl #2]
    94cc:	ea00003a 	b	95bc <_doprnt.constprop.0+0x23c>
    94d0:	00009b50 	.word	0x00009b50
    94d4:	000095bc 	.word	0x000095bc
    94d8:	000095bc 	.word	0x000095bc
    94dc:	000095bc 	.word	0x000095bc
    94e0:	000095bc 	.word	0x000095bc
    94e4:	000095bc 	.word	0x000095bc
    94e8:	000095bc 	.word	0x000095bc
    94ec:	000095bc 	.word	0x000095bc
    94f0:	000095bc 	.word	0x000095bc
    94f4:	000095bc 	.word	0x000095bc
    94f8:	00009b38 	.word	0x00009b38
    94fc:	000098d8 	.word	0x000098d8
    9500:	00009630 	.word	0x00009630
    9504:	000095bc 	.word	0x000095bc
    9508:	000095bc 	.word	0x000095bc
    950c:	000095bc 	.word	0x000095bc
    9510:	000095bc 	.word	0x000095bc
    9514:	00009630 	.word	0x00009630
    9518:	000095bc 	.word	0x000095bc
    951c:	000095bc 	.word	0x000095bc
    9520:	000095bc 	.word	0x000095bc
    9524:	000095bc 	.word	0x000095bc
    9528:	000095bc 	.word	0x000095bc
    952c:	00009670 	.word	0x00009670
    9530:	00009990 	.word	0x00009990
    9534:	000095bc 	.word	0x000095bc
    9538:	000095bc 	.word	0x000095bc
    953c:	0000996c 	.word	0x0000996c
    9540:	000095bc 	.word	0x000095bc
    9544:	00009b00 	.word	0x00009b00
    9548:	000095bc 	.word	0x000095bc
    954c:	000095bc 	.word	0x000095bc
    9550:	00009b18 	.word	0x00009b18
    9554:	e58d2000 	str	r2, [sp]
    9558:	e5fb2001 	ldrb	r2, [fp, #1]!
    955c:	e352002d 	cmp	r2, #45	; 0x2d
    9560:	1affffb3 	bne	9434 <_doprnt.constprop.0+0xb4>
    9564:	e3a03001 	mov	r3, #1
    9568:	e58d3008 	str	r3, [sp, #8]
    956c:	eafffff9 	b	9558 <_doprnt.constprop.0+0x1d8>
    9570:	e3a0e001 	mov	lr, #1
    9574:	eafffff7 	b	9558 <_doprnt.constprop.0+0x1d8>
    9578:	e1a0a000 	mov	sl, r0
    957c:	e1a0000a 	mov	r0, sl
    9580:	e28dd07c 	add	sp, sp, #124	; 0x7c
    9584:	e8bd8ff0 	pop	{r4, r5, r6, r7, r8, r9, sl, fp, pc}
    9588:	e2421030 	sub	r1, r2, #48	; 0x30
    958c:	e3a06000 	mov	r6, #0
    9590:	e6ef5071 	uxtb	r5, r1
    9594:	e3550009 	cmp	r5, #9
    9598:	93a0700a 	movls	r7, #10
    959c:	8affffb1 	bhi	9468 <_doprnt.constprop.0+0xe8>
    95a0:	e5fb2001 	ldrb	r2, [fp, #1]!
    95a4:	e0261697 	mla	r6, r7, r6, r1
    95a8:	e2421030 	sub	r1, r2, #48	; 0x30
    95ac:	e6ef3071 	uxtb	r3, r1
    95b0:	e3530009 	cmp	r3, #9
    95b4:	9afffff9 	bls	95a0 <_doprnt.constprop.0+0x220>
    95b8:	eaffffaa 	b	9468 <_doprnt.constprop.0+0xe8>
    95bc:	e1a0b00c 	mov	fp, ip
    95c0:	eaffff80 	b	93c8 <_doprnt.constprop.0+0x48>
    95c4:	e5db2001 	ldrb	r2, [fp, #1]
    95c8:	e3a05003 	mov	r5, #3
    95cc:	e28bb001 	add	fp, fp, #1
    95d0:	eaffffba 	b	94c0 <_doprnt.constprop.0+0x140>
    95d4:	e5db2001 	ldrb	r2, [fp, #1]
    95d8:	e352002a 	cmp	r2, #42	; 0x2a
    95dc:	1a000005 	bne	95f8 <_doprnt.constprop.0+0x278>
    95e0:	e59d1004 	ldr	r1, [sp, #4]
    95e4:	e28bb002 	add	fp, fp, #2
    95e8:	e5db2000 	ldrb	r2, [fp]
    95ec:	e4913004 	ldr	r3, [r1], #4
    95f0:	e58d1004 	str	r1, [sp, #4]
    95f4:	eaffffa5 	b	9490 <_doprnt.constprop.0+0x110>
    95f8:	e2421030 	sub	r1, r2, #48	; 0x30
    95fc:	e28bb001 	add	fp, fp, #1
    9600:	e3a03000 	mov	r3, #0
    9604:	e6ef5071 	uxtb	r5, r1
    9608:	e3550009 	cmp	r5, #9
    960c:	93a0700a 	movls	r7, #10
    9610:	8affff9e 	bhi	9490 <_doprnt.constprop.0+0x110>
    9614:	e5fb2001 	ldrb	r2, [fp, #1]!
    9618:	e0231397 	mla	r3, r7, r3, r1
    961c:	e2421030 	sub	r1, r2, #48	; 0x30
    9620:	e6ef5071 	uxtb	r5, r1
    9624:	e3550009 	cmp	r5, #9
    9628:	9afffff9 	bls	9614 <_doprnt.constprop.0+0x294>
    962c:	eaffff97 	b	9490 <_doprnt.constprop.0+0x110>
    9630:	e59d2004 	ldr	r2, [sp, #4]
    9634:	e1a01002 	mov	r1, r2
    9638:	e4912004 	ldr	r2, [r1], #4
    963c:	e58d1020 	str	r1, [sp, #32]
    9640:	e3520000 	cmp	r2, #0
    9644:	ba000143 	blt	9b58 <_doprnt.constprop.0+0x7d8>
    9648:	e3a01000 	mov	r1, #0
    964c:	e58d101c 	str	r1, [sp, #28]
    9650:	e58d100c 	str	r1, [sp, #12]
    9654:	e3a01000 	mov	r1, #0
    9658:	e59f55ac 	ldr	r5, [pc, #1452]	; 9c0c <_doprnt.constprop.0+0x88c>
    965c:	e28bb001 	add	fp, fp, #1
    9660:	e3a0c00a 	mov	ip, #10
    9664:	e5cd1054 	strb	r1, [sp, #84]	; 0x54
    9668:	e58d1014 	str	r1, [sp, #20]
    966c:	ea0000f6 	b	9a4c <_doprnt.constprop.0+0x6cc>
    9670:	e35e0001 	cmp	lr, #1
    9674:	0a000141 	beq	9b80 <_doprnt.constprop.0+0x800>
    9678:	e3a01000 	mov	r1, #0
    967c:	e3a0c008 	mov	ip, #8
    9680:	e1a07001 	mov	r7, r1
    9684:	e3a02003 	mov	r2, #3
    9688:	e58d200c 	str	r2, [sp, #12]
    968c:	e59d2004 	ldr	r2, [sp, #4]
    9690:	e28bb001 	add	fp, fp, #1
    9694:	e1a00002 	mov	r0, r2
    9698:	e4902004 	ldr	r2, [r0], #4
    969c:	e58d0020 	str	r0, [sp, #32]
    96a0:	e3520000 	cmp	r2, #0
    96a4:	03a01000 	moveq	r1, #0
    96a8:	e3510000 	cmp	r1, #0
    96ac:	0a00012f 	beq	9b70 <_doprnt.constprop.0+0x7f0>
    96b0:	e3a01030 	mov	r1, #48	; 0x30
    96b4:	e5cd102c 	strb	r1, [sp, #44]	; 0x2c
    96b8:	e3a01001 	mov	r1, #1
    96bc:	e58d1014 	str	r1, [sp, #20]
    96c0:	e3a00000 	mov	r0, #0
    96c4:	e59d1018 	ldr	r1, [sp, #24]
    96c8:	e1570000 	cmp	r7, r0
    96cc:	e59f5538 	ldr	r5, [pc, #1336]	; 9c0c <_doprnt.constprop.0+0x88c>
    96d0:	11a05001 	movne	r5, r1
    96d4:	e59d100c 	ldr	r1, [sp, #12]
    96d8:	e5cd0054 	strb	r0, [sp, #84]	; 0x54
    96dc:	e1510000 	cmp	r1, r0
    96e0:	0a0000d8 	beq	9a48 <_doprnt.constprop.0+0x6c8>
    96e4:	e3e0c000 	mvn	ip, #0
    96e8:	e1b00132 	lsrs	r0, r2, r1
    96ec:	e1e0c11c 	mvn	ip, ip, lsl r1
    96f0:	e002200c 	and	r2, r2, ip
    96f4:	e7d5e002 	ldrb	lr, [r5, r2]
    96f8:	e5cde055 	strb	lr, [sp, #85]	; 0x55
    96fc:	0a00013e 	beq	9bfc <_doprnt.constprop.0+0x87c>
    9700:	e28d7055 	add	r7, sp, #85	; 0x55
    9704:	e3a02001 	mov	r2, #1
    9708:	e00ce000 	and	lr, ip, r0
    970c:	e2822001 	add	r2, r2, #1
    9710:	e1b00130 	lsrs	r0, r0, r1
    9714:	e7d5e00e 	ldrb	lr, [r5, lr]
    9718:	e5e7e001 	strb	lr, [r7, #1]!
    971c:	1afffff9 	bne	9708 <_doprnt.constprop.0+0x388>
    9720:	e58d000c 	str	r0, [sp, #12]
    9724:	e58d001c 	str	r0, [sp, #28]
    9728:	e28d0054 	add	r0, sp, #84	; 0x54
    972c:	e28dc030 	add	ip, sp, #48	; 0x30
    9730:	e0802002 	add	r2, r0, r2
    9734:	ea000000 	b	973c <_doprnt.constprop.0+0x3bc>
    9738:	e572e001 	ldrb	lr, [r2, #-1]!
    973c:	e1520000 	cmp	r2, r0
    9740:	e4cce001 	strb	lr, [ip], #1
    9744:	1afffffb 	bne	9738 <_doprnt.constprop.0+0x3b8>
    9748:	e28d0030 	add	r0, sp, #48	; 0x30
    974c:	e58d3024 	str	r3, [sp, #36]	; 0x24
    9750:	fa0010ce 	blx	da90 <strlen>
    9754:	e59d3024 	ldr	r3, [sp, #36]	; 0x24
    9758:	e58d0004 	str	r0, [sp, #4]
    975c:	e3530000 	cmp	r3, #0
    9760:	ba0000b3 	blt	9a34 <_doprnt.constprop.0+0x6b4>
    9764:	e1530000 	cmp	r3, r0
    9768:	c0435000 	subgt	r5, r3, r0
    976c:	d1a03000 	movle	r3, r0
    9770:	d3a05000 	movle	r5, #0
    9774:	e59d201c 	ldr	r2, [sp, #28]
    9778:	e0837002 	add	r7, r3, r2
    977c:	e28d3030 	add	r3, sp, #48	; 0x30
    9780:	e1570006 	cmp	r7, r6
    9784:	e58d301c 	str	r3, [sp, #28]
    9788:	ba0000c0 	blt	9a90 <_doprnt.constprop.0+0x710>
    978c:	e3a03020 	mov	r3, #32
    9790:	e58d3000 	str	r3, [sp]
    9794:	e3a03000 	mov	r3, #0
    9798:	e58d3010 	str	r3, [sp, #16]
    979c:	e59d3014 	ldr	r3, [sp, #20]
    97a0:	e3530000 	cmp	r3, #0
    97a4:	0a000013 	beq	97f8 <_doprnt.constprop.0+0x478>
    97a8:	e5980000 	ldr	r0, [r8]
    97ac:	e3a07000 	mov	r7, #0
    97b0:	e58d5014 	str	r5, [sp, #20]
    97b4:	e28d602c 	add	r6, sp, #44	; 0x2c
    97b8:	e1a05004 	mov	r5, r4
    97bc:	e1a04003 	mov	r4, r3
    97c0:	e5992000 	ldr	r2, [r9]
    97c4:	e1520000 	cmp	r2, r0
    97c8:	da000004 	ble	97e0 <_doprnt.constprop.0+0x460>
    97cc:	e7d60007 	ldrb	r0, [r6, r7]
    97d0:	e12fff35 	blx	r5
    97d4:	e5980000 	ldr	r0, [r8]
    97d8:	e2800001 	add	r0, r0, #1
    97dc:	e5880000 	str	r0, [r8]
    97e0:	e2877001 	add	r7, r7, #1
    97e4:	e1570004 	cmp	r7, r4
    97e8:	1afffff4 	bne	97c0 <_doprnt.constprop.0+0x440>
    97ec:	e1a04005 	mov	r4, r5
    97f0:	e59d5014 	ldr	r5, [sp, #20]
    97f4:	e087a00a 	add	sl, r7, sl
    97f8:	e59d3008 	ldr	r3, [sp, #8]
    97fc:	e3530000 	cmp	r3, #0
    9800:	0a0000a6 	beq	9aa0 <_doprnt.constprop.0+0x720>
    9804:	e59d000c 	ldr	r0, [sp, #12]
    9808:	e3500000 	cmp	r0, #0
    980c:	0a000008 	beq	9834 <_doprnt.constprop.0+0x4b4>
    9810:	e5981000 	ldr	r1, [r8]
    9814:	e5992000 	ldr	r2, [r9]
    9818:	e1510002 	cmp	r1, r2
    981c:	aa000003 	bge	9830 <_doprnt.constprop.0+0x4b0>
    9820:	e12fff34 	blx	r4
    9824:	e5982000 	ldr	r2, [r8]
    9828:	e2822001 	add	r2, r2, #1
    982c:	e5882000 	str	r2, [r8]
    9830:	e28aa001 	add	sl, sl, #1
    9834:	e3550000 	cmp	r5, #0
    9838:	0a00000d 	beq	9874 <_doprnt.constprop.0+0x4f4>
    983c:	e5982000 	ldr	r2, [r8]
    9840:	e3a06000 	mov	r6, #0
    9844:	e5993000 	ldr	r3, [r9]
    9848:	e3a00030 	mov	r0, #48	; 0x30
    984c:	e2866001 	add	r6, r6, #1
    9850:	e1530002 	cmp	r3, r2
    9854:	da000003 	ble	9868 <_doprnt.constprop.0+0x4e8>
    9858:	e12fff34 	blx	r4
    985c:	e5982000 	ldr	r2, [r8]
    9860:	e2822001 	add	r2, r2, #1
    9864:	e5882000 	str	r2, [r8]
    9868:	e1560005 	cmp	r6, r5
    986c:	1afffff4 	bne	9844 <_doprnt.constprop.0+0x4c4>
    9870:	e08aa006 	add	sl, sl, r6
    9874:	e59d3004 	ldr	r3, [sp, #4]
    9878:	e3530000 	cmp	r3, #0
    987c:	da00000f 	ble	98c0 <_doprnt.constprop.0+0x540>
    9880:	e59d501c 	ldr	r5, [sp, #28]
    9884:	e5982000 	ldr	r2, [r8]
    9888:	e0856003 	add	r6, r5, r3
    988c:	e5993000 	ldr	r3, [r9]
    9890:	e1530002 	cmp	r3, r2
    9894:	da000004 	ble	98ac <_doprnt.constprop.0+0x52c>
    9898:	e5d50000 	ldrb	r0, [r5]
    989c:	e12fff34 	blx	r4
    98a0:	e5982000 	ldr	r2, [r8]
    98a4:	e2822001 	add	r2, r2, #1
    98a8:	e5882000 	str	r2, [r8]
    98ac:	e2855001 	add	r5, r5, #1
    98b0:	e1560005 	cmp	r6, r5
    98b4:	1afffff4 	bne	988c <_doprnt.constprop.0+0x50c>
    98b8:	e59d3004 	ldr	r3, [sp, #4]
    98bc:	e08aa003 	add	sl, sl, r3
    98c0:	e59d3008 	ldr	r3, [sp, #8]
    98c4:	e3530000 	cmp	r3, #0
    98c8:	1a0000b3 	bne	9b9c <_doprnt.constprop.0+0x81c>
    98cc:	e59d3020 	ldr	r3, [sp, #32]
    98d0:	e58d3004 	str	r3, [sp, #4]
    98d4:	eafffec4 	b	93ec <_doprnt.constprop.0+0x6c>
    98d8:	e59d1004 	ldr	r1, [sp, #4]
    98dc:	e3a02000 	mov	r2, #0
    98e0:	e5cd2031 	strb	r2, [sp, #49]	; 0x31
    98e4:	e28d2030 	add	r2, sp, #48	; 0x30
    98e8:	e58d201c 	str	r2, [sp, #28]
    98ec:	e4912004 	ldr	r2, [r1], #4
    98f0:	e58d1020 	str	r1, [sp, #32]
    98f4:	e5cd2030 	strb	r2, [sp, #48]	; 0x30
    98f8:	e59d001c 	ldr	r0, [sp, #28]
    98fc:	e28bb001 	add	fp, fp, #1
    9900:	e58d300c 	str	r3, [sp, #12]
    9904:	fa001061 	blx	da90 <strlen>
    9908:	e59d300c 	ldr	r3, [sp, #12]
    990c:	e58d0004 	str	r0, [sp, #4]
    9910:	e3530000 	cmp	r3, #0
    9914:	ba000041 	blt	9a20 <_doprnt.constprop.0+0x6a0>
    9918:	e1500003 	cmp	r0, r3
    991c:	e3a01000 	mov	r1, #0
    9920:	b1a07000 	movlt	r7, r0
    9924:	a1a07003 	movge	r7, r3
    9928:	e58d1014 	str	r1, [sp, #20]
    992c:	e58d7004 	str	r7, [sp, #4]
    9930:	e58d100c 	str	r1, [sp, #12]
    9934:	e1560007 	cmp	r6, r7
    9938:	ca000024 	bgt	99d0 <_doprnt.constprop.0+0x650>
    993c:	e59d2010 	ldr	r2, [sp, #16]
    9940:	e3a05000 	mov	r5, #0
    9944:	e59d3000 	ldr	r3, [sp]
    9948:	e58d5010 	str	r5, [sp, #16]
    994c:	e3530030 	cmp	r3, #48	; 0x30
    9950:	13a02000 	movne	r2, #0
    9954:	02022001 	andeq	r2, r2, #1
    9958:	e3520000 	cmp	r2, #0
    995c:	13a03000 	movne	r3, #0
    9960:	159d5010 	ldrne	r5, [sp, #16]
    9964:	158d3010 	strne	r3, [sp, #16]
    9968:	eaffff8b 	b	979c <_doprnt.constprop.0+0x41c>
    996c:	e59d0004 	ldr	r0, [sp, #4]
    9970:	e30d2cdc 	movw	r2, #56540	; 0xdcdc
    9974:	e3402000 	movt	r2, #0
    9978:	e4901004 	ldr	r1, [r0], #4
    997c:	e58d0020 	str	r0, [sp, #32]
    9980:	e3510000 	cmp	r1, #0
    9984:	01a01002 	moveq	r1, r2
    9988:	e58d101c 	str	r1, [sp, #28]
    998c:	eaffffd9 	b	98f8 <_doprnt.constprop.0+0x578>
    9990:	e59d2004 	ldr	r2, [sp, #4]
    9994:	e28bb001 	add	fp, fp, #1
    9998:	e3a0c010 	mov	ip, #16
    999c:	e3a07000 	mov	r7, #0
    99a0:	e1a01002 	mov	r1, r2
    99a4:	e3a06004 	mov	r6, #4
    99a8:	e58d600c 	str	r6, [sp, #12]
    99ac:	e4912004 	ldr	r2, [r1], #4
    99b0:	e58d1020 	str	r1, [sp, #32]
    99b4:	e3a01030 	mov	r1, #48	; 0x30
    99b8:	e58d1000 	str	r1, [sp]
    99bc:	e3071830 	movw	r1, #30768	; 0x7830
    99c0:	e1cd12bc 	strh	r1, [sp, #44]	; 0x2c
    99c4:	e3a01002 	mov	r1, #2
    99c8:	e58d1014 	str	r1, [sp, #20]
    99cc:	eaffff3b 	b	96c0 <_doprnt.constprop.0+0x340>
    99d0:	e59d2010 	ldr	r2, [sp, #16]
    99d4:	e3a05000 	mov	r5, #0
    99d8:	e59d3000 	ldr	r3, [sp]
    99dc:	e3530030 	cmp	r3, #48	; 0x30
    99e0:	13a02000 	movne	r2, #0
    99e4:	02022001 	andeq	r2, r2, #1
    99e8:	e0463007 	sub	r3, r6, r7
    99ec:	e58d3010 	str	r3, [sp, #16]
    99f0:	eaffffd8 	b	9958 <_doprnt.constprop.0+0x5d8>
    99f4:	e3a03000 	mov	r3, #0
    99f8:	e5db2001 	ldrb	r2, [fp, #1]
    99fc:	e58d3010 	str	r3, [sp, #16]
    9a00:	e2666000 	rsb	r6, r6, #0
    9a04:	e3a03001 	mov	r3, #1
    9a08:	e28bb001 	add	fp, fp, #1
    9a0c:	e58d3008 	str	r3, [sp, #8]
    9a10:	e3a03020 	mov	r3, #32
    9a14:	e58d1004 	str	r1, [sp, #4]
    9a18:	e58d3000 	str	r3, [sp]
    9a1c:	eafffe98 	b	9484 <_doprnt.constprop.0+0x104>
    9a20:	e3a03000 	mov	r3, #0
    9a24:	e1a07000 	mov	r7, r0
    9a28:	e58d3014 	str	r3, [sp, #20]
    9a2c:	e58d300c 	str	r3, [sp, #12]
    9a30:	eaffffbf 	b	9934 <_doprnt.constprop.0+0x5b4>
    9a34:	e59d201c 	ldr	r2, [sp, #28]
    9a38:	e28d3030 	add	r3, sp, #48	; 0x30
    9a3c:	e58d301c 	str	r3, [sp, #28]
    9a40:	e0807002 	add	r7, r0, r2
    9a44:	eaffffba 	b	9934 <_doprnt.constprop.0+0x5b4>
    9a48:	e58d101c 	str	r1, [sp, #28]
    9a4c:	e730fc12 	udiv	r0, r2, ip
    9a50:	e15c0002 	cmp	ip, r2
    9a54:	e062209c 	mls	r2, ip, r0, r2
    9a58:	e7d5e002 	ldrb	lr, [r5, r2]
    9a5c:	e5cde055 	strb	lr, [sp, #85]	; 0x55
    9a60:	8a000063 	bhi	9bf4 <_doprnt.constprop.0+0x874>
    9a64:	e28d7055 	add	r7, sp, #85	; 0x55
    9a68:	e3a02001 	mov	r2, #1
    9a6c:	e731fc10 	udiv	r1, r0, ip
    9a70:	e150000c 	cmp	r0, ip
    9a74:	e2822001 	add	r2, r2, #1
    9a78:	e06e019c 	mls	lr, ip, r1, r0
    9a7c:	e1a00001 	mov	r0, r1
    9a80:	e7d5e00e 	ldrb	lr, [r5, lr]
    9a84:	e5e7e001 	strb	lr, [r7, #1]!
    9a88:	2afffff7 	bcs	9a6c <_doprnt.constprop.0+0x6ec>
    9a8c:	eaffff25 	b	9728 <_doprnt.constprop.0+0x3a8>
    9a90:	e3a03020 	mov	r3, #32
    9a94:	e3a02000 	mov	r2, #0
    9a98:	e58d3000 	str	r3, [sp]
    9a9c:	eaffffd1 	b	99e8 <_doprnt.constprop.0+0x668>
    9aa0:	e59d7010 	ldr	r7, [sp, #16]
    9aa4:	e3570000 	cmp	r7, #0
    9aa8:	0affff55 	beq	9804 <_doprnt.constprop.0+0x484>
    9aac:	e5982000 	ldr	r2, [r8]
    9ab0:	e1a06003 	mov	r6, r3
    9ab4:	e58d5014 	str	r5, [sp, #20]
    9ab8:	e1a05008 	mov	r5, r8
    9abc:	e59d8000 	ldr	r8, [sp]
    9ac0:	e5991000 	ldr	r1, [r9]
    9ac4:	e1a00008 	mov	r0, r8
    9ac8:	e2866001 	add	r6, r6, #1
    9acc:	e1510002 	cmp	r1, r2
    9ad0:	da000003 	ble	9ae4 <_doprnt.constprop.0+0x764>
    9ad4:	e12fff34 	blx	r4
    9ad8:	e5952000 	ldr	r2, [r5]
    9adc:	e2822001 	add	r2, r2, #1
    9ae0:	e5852000 	str	r2, [r5]
    9ae4:	e1560007 	cmp	r6, r7
    9ae8:	1afffff4 	bne	9ac0 <_doprnt.constprop.0+0x740>
    9aec:	e59d3010 	ldr	r3, [sp, #16]
    9af0:	e1a08005 	mov	r8, r5
    9af4:	e59d5014 	ldr	r5, [sp, #20]
    9af8:	e08aa003 	add	sl, sl, r3
    9afc:	eaffff40 	b	9804 <_doprnt.constprop.0+0x484>
    9b00:	e3a02000 	mov	r2, #0
    9b04:	e3a0c00a 	mov	ip, #10
    9b08:	e1a07002 	mov	r7, r2
    9b0c:	e1a01002 	mov	r1, r2
    9b10:	e58d200c 	str	r2, [sp, #12]
    9b14:	eafffedc 	b	968c <_doprnt.constprop.0+0x30c>
    9b18:	e3a07000 	mov	r7, #0
    9b1c:	e35e0001 	cmp	lr, #1
    9b20:	e3a02004 	mov	r2, #4
    9b24:	e3a01000 	mov	r1, #0
    9b28:	e3a0c010 	mov	ip, #16
    9b2c:	03a0e003 	moveq	lr, #3
    9b30:	e58d200c 	str	r2, [sp, #12]
    9b34:	eafffed4 	b	968c <_doprnt.constprop.0+0x30c>
    9b38:	e3a01000 	mov	r1, #0
    9b3c:	e3a02001 	mov	r2, #1
    9b40:	e1a07001 	mov	r7, r1
    9b44:	e3a0c002 	mov	ip, #2
    9b48:	e58d200c 	str	r2, [sp, #12]
    9b4c:	eafffece 	b	968c <_doprnt.constprop.0+0x30c>
    9b50:	e3a07001 	mov	r7, #1
    9b54:	eafffff0 	b	9b1c <_doprnt.constprop.0+0x79c>
    9b58:	e3a01001 	mov	r1, #1
    9b5c:	e2622000 	rsb	r2, r2, #0
    9b60:	e58d101c 	str	r1, [sp, #28]
    9b64:	e3a0102d 	mov	r1, #45	; 0x2d
    9b68:	e58d100c 	str	r1, [sp, #12]
    9b6c:	eafffeb8 	b	9654 <_doprnt.constprop.0+0x2d4>
    9b70:	e35e0003 	cmp	lr, #3
    9b74:	0affff90 	beq	99bc <_doprnt.constprop.0+0x63c>
    9b78:	e58d1014 	str	r1, [sp, #20]
    9b7c:	eafffecf 	b	96c0 <_doprnt.constprop.0+0x340>
    9b80:	e1a0100e 	mov	r1, lr
    9b84:	e3a02003 	mov	r2, #3
    9b88:	e3a0c008 	mov	ip, #8
    9b8c:	e3a07000 	mov	r7, #0
    9b90:	e3a0e002 	mov	lr, #2
    9b94:	e58d200c 	str	r2, [sp, #12]
    9b98:	eafffebb 	b	968c <_doprnt.constprop.0+0x30c>
    9b9c:	e59d6010 	ldr	r6, [sp, #16]
    9ba0:	e3560000 	cmp	r6, #0
    9ba4:	0affff48 	beq	98cc <_doprnt.constprop.0+0x54c>
    9ba8:	e5982000 	ldr	r2, [r8]
    9bac:	e3a05000 	mov	r5, #0
    9bb0:	e59d7000 	ldr	r7, [sp]
    9bb4:	e5993000 	ldr	r3, [r9]
    9bb8:	e1a00007 	mov	r0, r7
    9bbc:	e2855001 	add	r5, r5, #1
    9bc0:	e1530002 	cmp	r3, r2
    9bc4:	da000003 	ble	9bd8 <_doprnt.constprop.0+0x858>
    9bc8:	e12fff34 	blx	r4
    9bcc:	e5982000 	ldr	r2, [r8]
    9bd0:	e2822001 	add	r2, r2, #1
    9bd4:	e5882000 	str	r2, [r8]
    9bd8:	e1560005 	cmp	r6, r5
    9bdc:	1afffff4 	bne	9bb4 <_doprnt.constprop.0+0x834>
    9be0:	e59d3010 	ldr	r3, [sp, #16]
    9be4:	e08aa003 	add	sl, sl, r3
    9be8:	e59d3020 	ldr	r3, [sp, #32]
    9bec:	e58d3004 	str	r3, [sp, #4]
    9bf0:	eafffdfd 	b	93ec <_doprnt.constprop.0+0x6c>
    9bf4:	e3a02001 	mov	r2, #1
    9bf8:	eafffeca 	b	9728 <_doprnt.constprop.0+0x3a8>
    9bfc:	e3a02001 	mov	r2, #1
    9c00:	e58d000c 	str	r0, [sp, #12]
    9c04:	e58d001c 	str	r0, [sp, #28]
    9c08:	eafffec6 	b	9728 <_doprnt.constprop.0+0x3a8>
    9c0c:	0000dcf4 	.word	0x0000dcf4

00009c10 <_doprnt.constprop.1>:
    9c10:	e92d4ff0 	push	{r4, r5, r6, r7, r8, r9, sl, fp, lr}
    9c14:	e5d0c000 	ldrb	ip, [r0]
    9c18:	e24dd074 	sub	sp, sp, #116	; 0x74
    9c1c:	e35c0000 	cmp	ip, #0
    9c20:	0a000076 	beq	9e00 <_doprnt.constprop.1+0x1f0>
    9c24:	e30e9f30 	movw	r9, #61232	; 0xef30
    9c28:	e3409000 	movt	r9, #0
    9c2c:	e30e7ee0 	movw	r7, #61152	; 0xeee0
    9c30:	e3407000 	movt	r7, #0
    9c34:	e30d3ce4 	movw	r3, #56548	; 0xdce4
    9c38:	e3403000 	movt	r3, #0
    9c3c:	e1a0a000 	mov	sl, r0
    9c40:	e1a06002 	mov	r6, r2
    9c44:	e3a08000 	mov	r8, #0
    9c48:	e1a0b001 	mov	fp, r1
    9c4c:	e58d3014 	str	r3, [sp, #20]
    9c50:	ea00000b 	b	9c84 <_doprnt.constprop.1+0x74>
    9c54:	e5972000 	ldr	r2, [r7]
    9c58:	e2888001 	add	r8, r8, #1
    9c5c:	e5993000 	ldr	r3, [r9]
    9c60:	e1530002 	cmp	r3, r2
    9c64:	b2833001 	addlt	r3, r3, #1
    9c68:	b5893000 	strlt	r3, [r9]
    9c6c:	b5962000 	ldrlt	r2, [r6]
    9c70:	b4c2c001 	strblt	ip, [r2], #1
    9c74:	b5862000 	strlt	r2, [r6]
    9c78:	e5dac000 	ldrb	ip, [sl]
    9c7c:	e35c0000 	cmp	ip, #0
    9c80:	0a00005f 	beq	9e04 <_doprnt.constprop.1+0x1f4>
    9c84:	e35c0025 	cmp	ip, #37	; 0x25
    9c88:	128aa001 	addne	sl, sl, #1
    9c8c:	1afffff0 	bne	9c54 <_doprnt.constprop.1+0x44>
    9c90:	e5da3001 	ldrb	r3, [sl, #1]
    9c94:	e28a0001 	add	r0, sl, #1
    9c98:	e3530025 	cmp	r3, #37	; 0x25
    9c9c:	028aa002 	addeq	sl, sl, #2
    9ca0:	0affffeb 	beq	9c54 <_doprnt.constprop.1+0x44>
    9ca4:	e3a01000 	mov	r1, #0
    9ca8:	e3a02020 	mov	r2, #32
    9cac:	e1a0a000 	mov	sl, r0
    9cb0:	e353002d 	cmp	r3, #45	; 0x2d
    9cb4:	e58d1004 	str	r1, [sp, #4]
    9cb8:	e58d2000 	str	r2, [sp]
    9cbc:	0a00004a 	beq	9dec <_doprnt.constprop.1+0x1dc>
    9cc0:	e3530030 	cmp	r3, #48	; 0x30
    9cc4:	0a000044 	beq	9ddc <_doprnt.constprop.1+0x1cc>
    9cc8:	e3530023 	cmp	r3, #35	; 0x23
    9ccc:	0a000049 	beq	9df8 <_doprnt.constprop.1+0x1e8>
    9cd0:	e353002a 	cmp	r3, #42	; 0x2a
    9cd4:	1a00004d 	bne	9e10 <_doprnt.constprop.1+0x200>
    9cd8:	e1a0200b 	mov	r2, fp
    9cdc:	e4924004 	ldr	r4, [r2], #4
    9ce0:	e3540000 	cmp	r4, #0
    9ce4:	ba00017b 	blt	a2d8 <_doprnt.constprop.1+0x6c8>
    9ce8:	e5da3001 	ldrb	r3, [sl, #1]
    9cec:	e1a0b002 	mov	fp, r2
    9cf0:	e28aa001 	add	sl, sl, #1
    9cf4:	e59d2004 	ldr	r2, [sp, #4]
    9cf8:	e3520000 	cmp	r2, #0
    9cfc:	e2222001 	eor	r2, r2, #1
    9d00:	e58d2010 	str	r2, [sp, #16]
    9d04:	e59d2000 	ldr	r2, [sp]
    9d08:	13a02020 	movne	r2, #32
    9d0c:	e58d2000 	str	r2, [sp]
    9d10:	e353002e 	cmp	r3, #46	; 0x2e
    9d14:	13e05000 	mvnne	r5, #0
    9d18:	0a00004b 	beq	9e4c <_doprnt.constprop.1+0x23c>
    9d1c:	e353006c 	cmp	r3, #108	; 0x6c
    9d20:	05da3001 	ldrbeq	r3, [sl, #1]
    9d24:	028aa001 	addeq	sl, sl, #1
    9d28:	0a000006 	beq	9d48 <_doprnt.constprop.1+0x138>
    9d2c:	e3530068 	cmp	r3, #104	; 0x68
    9d30:	1a000004 	bne	9d48 <_doprnt.constprop.1+0x138>
    9d34:	e5da3001 	ldrb	r3, [sl, #1]
    9d38:	e3530068 	cmp	r3, #104	; 0x68
    9d3c:	128aa001 	addne	sl, sl, #1
    9d40:	05da3002 	ldrbeq	r3, [sl, #2]
    9d44:	028aa002 	addeq	sl, sl, #2
    9d48:	e2433058 	sub	r3, r3, #88	; 0x58
    9d4c:	e3530020 	cmp	r3, #32
    9d50:	979ff103 	ldrls	pc, [pc, r3, lsl #2]
    9d54:	ea00003a 	b	9e44 <_doprnt.constprop.1+0x234>
    9d58:	0000a3c4 	.word	0x0000a3c4
    9d5c:	00009e44 	.word	0x00009e44
    9d60:	00009e44 	.word	0x00009e44
    9d64:	00009e44 	.word	0x00009e44
    9d68:	00009e44 	.word	0x00009e44
    9d6c:	00009e44 	.word	0x00009e44
    9d70:	00009e44 	.word	0x00009e44
    9d74:	00009e44 	.word	0x00009e44
    9d78:	00009e44 	.word	0x00009e44
    9d7c:	00009e44 	.word	0x00009e44
    9d80:	0000a3cc 	.word	0x0000a3cc
    9d84:	0000a168 	.word	0x0000a168
    9d88:	00009ea8 	.word	0x00009ea8
    9d8c:	00009e44 	.word	0x00009e44
    9d90:	00009e44 	.word	0x00009e44
    9d94:	00009e44 	.word	0x00009e44
    9d98:	00009e44 	.word	0x00009e44
    9d9c:	00009ea8 	.word	0x00009ea8
    9da0:	00009e44 	.word	0x00009e44
    9da4:	00009e44 	.word	0x00009e44
    9da8:	00009e44 	.word	0x00009e44
    9dac:	00009e44 	.word	0x00009e44
    9db0:	00009e44 	.word	0x00009e44
    9db4:	00009ee4 	.word	0x00009ee4
    9db8:	0000a20c 	.word	0x0000a20c
    9dbc:	00009e44 	.word	0x00009e44
    9dc0:	00009e44 	.word	0x00009e44
    9dc4:	0000a1e8 	.word	0x0000a1e8
    9dc8:	00009e44 	.word	0x00009e44
    9dcc:	0000a38c 	.word	0x0000a38c
    9dd0:	00009e44 	.word	0x00009e44
    9dd4:	00009e44 	.word	0x00009e44
    9dd8:	0000a3a4 	.word	0x0000a3a4
    9ddc:	e58d3000 	str	r3, [sp]
    9de0:	e5fa3001 	ldrb	r3, [sl, #1]!
    9de4:	e353002d 	cmp	r3, #45	; 0x2d
    9de8:	1affffb4 	bne	9cc0 <_doprnt.constprop.1+0xb0>
    9dec:	e3a03001 	mov	r3, #1
    9df0:	e58d3004 	str	r3, [sp, #4]
    9df4:	eafffff9 	b	9de0 <_doprnt.constprop.1+0x1d0>
    9df8:	e3a01001 	mov	r1, #1
    9dfc:	eafffff7 	b	9de0 <_doprnt.constprop.1+0x1d0>
    9e00:	e1a0800c 	mov	r8, ip
    9e04:	e1a00008 	mov	r0, r8
    9e08:	e28dd074 	add	sp, sp, #116	; 0x74
    9e0c:	e8bd8ff0 	pop	{r4, r5, r6, r7, r8, r9, sl, fp, pc}
    9e10:	e2432030 	sub	r2, r3, #48	; 0x30
    9e14:	e3a04000 	mov	r4, #0
    9e18:	e6efe072 	uxtb	lr, r2
    9e1c:	e35e0009 	cmp	lr, #9
    9e20:	93a0500a 	movls	r5, #10
    9e24:	8affffb2 	bhi	9cf4 <_doprnt.constprop.1+0xe4>
    9e28:	e5fa3001 	ldrb	r3, [sl, #1]!
    9e2c:	e0242495 	mla	r4, r5, r4, r2
    9e30:	e2432030 	sub	r2, r3, #48	; 0x30
    9e34:	e6efe072 	uxtb	lr, r2
    9e38:	e35e0009 	cmp	lr, #9
    9e3c:	9afffff9 	bls	9e28 <_doprnt.constprop.1+0x218>
    9e40:	eaffffab 	b	9cf4 <_doprnt.constprop.1+0xe4>
    9e44:	e1a0a000 	mov	sl, r0
    9e48:	eaffff81 	b	9c54 <_doprnt.constprop.1+0x44>
    9e4c:	e5da3001 	ldrb	r3, [sl, #1]
    9e50:	e353002a 	cmp	r3, #42	; 0x2a
    9e54:	1a000005 	bne	9e70 <_doprnt.constprop.1+0x260>
    9e58:	e1a0200b 	mov	r2, fp
    9e5c:	e5da3002 	ldrb	r3, [sl, #2]
    9e60:	e28aa002 	add	sl, sl, #2
    9e64:	e4925004 	ldr	r5, [r2], #4
    9e68:	e1a0b002 	mov	fp, r2
    9e6c:	eaffffaa 	b	9d1c <_doprnt.constprop.1+0x10c>
    9e70:	e2432030 	sub	r2, r3, #48	; 0x30
    9e74:	e28aa001 	add	sl, sl, #1
    9e78:	e3a05000 	mov	r5, #0
    9e7c:	e6efe072 	uxtb	lr, r2
    9e80:	e35e0009 	cmp	lr, #9
    9e84:	8affffa4 	bhi	9d1c <_doprnt.constprop.1+0x10c>
    9e88:	e3a0e00a 	mov	lr, #10
    9e8c:	e5fa3001 	ldrb	r3, [sl, #1]!
    9e90:	e025259e 	mla	r5, lr, r5, r2
    9e94:	e2432030 	sub	r2, r3, #48	; 0x30
    9e98:	e6efe072 	uxtb	lr, r2
    9e9c:	e35e0009 	cmp	lr, #9
    9ea0:	9afffff8 	bls	9e88 <_doprnt.constprop.1+0x278>
    9ea4:	eaffff9c 	b	9d1c <_doprnt.constprop.1+0x10c>
    9ea8:	e1a0300b 	mov	r3, fp
    9eac:	e4932004 	ldr	r2, [r3], #4
    9eb0:	e58d301c 	str	r3, [sp, #28]
    9eb4:	e3520000 	cmp	r2, #0
    9eb8:	ba000149 	blt	a3e4 <_doprnt.constprop.1+0x7d4>
    9ebc:	e3a03000 	mov	r3, #0
    9ec0:	e58d3018 	str	r3, [sp, #24]
    9ec4:	e58d300c 	str	r3, [sp, #12]
    9ec8:	e3a03000 	mov	r3, #0
    9ecc:	e59fc5d8 	ldr	ip, [pc, #1496]	; a4ac <_doprnt.constprop.1+0x89c>
    9ed0:	e5cd304c 	strb	r3, [sp, #76]	; 0x4c
    9ed4:	e28aa001 	add	sl, sl, #1
    9ed8:	e58d3008 	str	r3, [sp, #8]
    9edc:	e3a0300a 	mov	r3, #10
    9ee0:	ea000112 	b	a330 <_doprnt.constprop.1+0x720>
    9ee4:	e3510001 	cmp	r1, #1
    9ee8:	0a000147 	beq	a40c <_doprnt.constprop.1+0x7fc>
    9eec:	e3a00000 	mov	r0, #0
    9ef0:	e3a03003 	mov	r3, #3
    9ef4:	e1a0e000 	mov	lr, r0
    9ef8:	e58d300c 	str	r3, [sp, #12]
    9efc:	e3a03008 	mov	r3, #8
    9f00:	e1a0c00b 	mov	ip, fp
    9f04:	e28aa001 	add	sl, sl, #1
    9f08:	e49c2004 	ldr	r2, [ip], #4
    9f0c:	e58dc01c 	str	ip, [sp, #28]
    9f10:	e3520000 	cmp	r2, #0
    9f14:	03a00000 	moveq	r0, #0
    9f18:	e3500000 	cmp	r0, #0
    9f1c:	0a000136 	beq	a3fc <_doprnt.constprop.1+0x7ec>
    9f20:	e3a01030 	mov	r1, #48	; 0x30
    9f24:	e5cd1024 	strb	r1, [sp, #36]	; 0x24
    9f28:	e3a01001 	mov	r1, #1
    9f2c:	e58d1008 	str	r1, [sp, #8]
    9f30:	e3a01000 	mov	r1, #0
    9f34:	e5cd104c 	strb	r1, [sp, #76]	; 0x4c
    9f38:	e59d1014 	ldr	r1, [sp, #20]
    9f3c:	e35e0000 	cmp	lr, #0
    9f40:	e59fc564 	ldr	ip, [pc, #1380]	; a4ac <_doprnt.constprop.1+0x89c>
    9f44:	11a0c001 	movne	ip, r1
    9f48:	e59d100c 	ldr	r1, [sp, #12]
    9f4c:	e3510000 	cmp	r1, #0
    9f50:	0a0000f5 	beq	a32c <_doprnt.constprop.1+0x71c>
    9f54:	e3e0e000 	mvn	lr, #0
    9f58:	e1b03132 	lsrs	r3, r2, r1
    9f5c:	e1e0e11e 	mvn	lr, lr, lsl r1
    9f60:	e1a0b001 	mov	fp, r1
    9f64:	e002200e 	and	r2, r2, lr
    9f68:	e7dc0002 	ldrb	r0, [ip, r2]
    9f6c:	e5cd004d 	strb	r0, [sp, #77]	; 0x4d
    9f70:	0a000145 	beq	a48c <_doprnt.constprop.1+0x87c>
    9f74:	e28d104d 	add	r1, sp, #77	; 0x4d
    9f78:	e3a02001 	mov	r2, #1
    9f7c:	e00e0003 	and	r0, lr, r3
    9f80:	e2822001 	add	r2, r2, #1
    9f84:	e1b03b33 	lsrs	r3, r3, fp
    9f88:	e7dc0000 	ldrb	r0, [ip, r0]
    9f8c:	e5e10001 	strb	r0, [r1, #1]!
    9f90:	1afffff9 	bne	9f7c <_doprnt.constprop.1+0x36c>
    9f94:	e58d300c 	str	r3, [sp, #12]
    9f98:	e58d3018 	str	r3, [sp, #24]
    9f9c:	e28d304c 	add	r3, sp, #76	; 0x4c
    9fa0:	e28d1028 	add	r1, sp, #40	; 0x28
    9fa4:	e0832002 	add	r2, r3, r2
    9fa8:	ea000000 	b	9fb0 <_doprnt.constprop.1+0x3a0>
    9fac:	e5720001 	ldrb	r0, [r2, #-1]!
    9fb0:	e1530002 	cmp	r3, r2
    9fb4:	e4c10001 	strb	r0, [r1], #1
    9fb8:	1afffffb 	bne	9fac <_doprnt.constprop.1+0x39c>
    9fbc:	e28d0028 	add	r0, sp, #40	; 0x28
    9fc0:	fa000eb2 	blx	da90 <strlen>
    9fc4:	e3550000 	cmp	r5, #0
    9fc8:	e1a0b000 	mov	fp, r0
    9fcc:	ba0000d1 	blt	a318 <_doprnt.constprop.1+0x708>
    9fd0:	e1550000 	cmp	r5, r0
    9fd4:	c045e000 	subgt	lr, r5, r0
    9fd8:	d1a05000 	movle	r5, r0
    9fdc:	d3a0e000 	movle	lr, #0
    9fe0:	e59d3018 	ldr	r3, [sp, #24]
    9fe4:	e0853003 	add	r3, r5, r3
    9fe8:	e1530004 	cmp	r3, r4
    9fec:	ba0000e0 	blt	a374 <_doprnt.constprop.1+0x764>
    9ff0:	e28d3028 	add	r3, sp, #40	; 0x28
    9ff4:	e58d3018 	str	r3, [sp, #24]
    9ff8:	e3a03020 	mov	r3, #32
    9ffc:	e58d3000 	str	r3, [sp]
    a000:	e3a03000 	mov	r3, #0
    a004:	e59d5008 	ldr	r5, [sp, #8]
    a008:	e3550000 	cmp	r5, #0
    a00c:	0a000014 	beq	a064 <_doprnt.constprop.1+0x454>
    a010:	e5991000 	ldr	r1, [r9]
    a014:	e5970000 	ldr	r0, [r7]
    a018:	e5962000 	ldr	r2, [r6]
    a01c:	e1510000 	cmp	r1, r0
    a020:	aa000087 	bge	a244 <_doprnt.constprop.1+0x634>
    a024:	e1a0c002 	mov	ip, r2
    a028:	e5dd4024 	ldrb	r4, [sp, #36]	; 0x24
    a02c:	e3550002 	cmp	r5, #2
    a030:	e2815001 	add	r5, r1, #1
    a034:	e4cc4001 	strb	r4, [ip], #1
    a038:	e586c000 	str	ip, [r6]
    a03c:	1a000116 	bne	a49c <_doprnt.constprop.1+0x88c>
    a040:	e1550000 	cmp	r5, r0
    a044:	b2815002 	addlt	r5, r1, #2
    a048:	b2888002 	addlt	r8, r8, #2
    a04c:	a2888002 	addge	r8, r8, #2
    a050:	b5dd0025 	ldrblt	r0, [sp, #37]	; 0x25
    a054:	b5c20001 	strblt	r0, [r2, #1]
    a058:	b2822002 	addlt	r2, r2, #2
    a05c:	b5862000 	strlt	r2, [r6]
    a060:	e5895000 	str	r5, [r9]
    a064:	e59d2004 	ldr	r2, [sp, #4]
    a068:	e3520000 	cmp	r2, #0
    a06c:	0a00007a 	beq	a25c <_doprnt.constprop.1+0x64c>
    a070:	e59d000c 	ldr	r0, [sp, #12]
    a074:	e3500000 	cmp	r0, #0
    a078:	0a000008 	beq	a0a0 <_doprnt.constprop.1+0x490>
    a07c:	e5971000 	ldr	r1, [r7]
    a080:	e2888001 	add	r8, r8, #1
    a084:	e5992000 	ldr	r2, [r9]
    a088:	e1520001 	cmp	r2, r1
    a08c:	b2822001 	addlt	r2, r2, #1
    a090:	b5892000 	strlt	r2, [r9]
    a094:	b5961000 	ldrlt	r1, [r6]
    a098:	b4c10001 	strblt	r0, [r1], #1
    a09c:	b5861000 	strlt	r1, [r6]
    a0a0:	e35e0000 	cmp	lr, #0
    a0a4:	0a000013 	beq	a0f8 <_doprnt.constprop.1+0x4e8>
    a0a8:	e3a05000 	mov	r5, #0
    a0ac:	e5990000 	ldr	r0, [r9]
    a0b0:	e5974000 	ldr	r4, [r7]
    a0b4:	e1a02005 	mov	r2, r5
    a0b8:	e596c000 	ldr	ip, [r6]
    a0bc:	e1a0100c 	mov	r1, ip
    a0c0:	e2822001 	add	r2, r2, #1
    a0c4:	e1500004 	cmp	r0, r4
    a0c8:	aa000005 	bge	a0e4 <_doprnt.constprop.1+0x4d4>
    a0cc:	e3a0c030 	mov	ip, #48	; 0x30
    a0d0:	e4c1c001 	strb	ip, [r1], #1
    a0d4:	e2800001 	add	r0, r0, #1
    a0d8:	e3a05001 	mov	r5, #1
    a0dc:	e1a0c001 	mov	ip, r1
    a0e0:	e5861000 	str	r1, [r6]
    a0e4:	e152000e 	cmp	r2, lr
    a0e8:	1afffff3 	bne	a0bc <_doprnt.constprop.1+0x4ac>
    a0ec:	e0888002 	add	r8, r8, r2
    a0f0:	e3550000 	cmp	r5, #0
    a0f4:	15890000 	strne	r0, [r9]
    a0f8:	e35b0000 	cmp	fp, #0
    a0fc:	da000014 	ble	a154 <_doprnt.constprop.1+0x544>
    a100:	e59d2018 	ldr	r2, [sp, #24]
    a104:	e3a05000 	mov	r5, #0
    a108:	e5990000 	ldr	r0, [r9]
    a10c:	e5974000 	ldr	r4, [r7]
    a110:	e082e00b 	add	lr, r2, fp
    a114:	e596c000 	ldr	ip, [r6]
    a118:	e1a0100c 	mov	r1, ip
    a11c:	e1500004 	cmp	r0, r4
    a120:	aa000005 	bge	a13c <_doprnt.constprop.1+0x52c>
    a124:	e5d2c000 	ldrb	ip, [r2]
    a128:	e2800001 	add	r0, r0, #1
    a12c:	e4c1c001 	strb	ip, [r1], #1
    a130:	e3a05001 	mov	r5, #1
    a134:	e1a0c001 	mov	ip, r1
    a138:	e5861000 	str	r1, [r6]
    a13c:	e2822001 	add	r2, r2, #1
    a140:	e15e0002 	cmp	lr, r2
    a144:	1afffff3 	bne	a118 <_doprnt.constprop.1+0x508>
    a148:	e088800b 	add	r8, r8, fp
    a14c:	e3550000 	cmp	r5, #0
    a150:	15890000 	strne	r0, [r9]
    a154:	e59d2004 	ldr	r2, [sp, #4]
    a158:	e3520000 	cmp	r2, #0
    a15c:	1a0000b1 	bne	a428 <_doprnt.constprop.1+0x818>
    a160:	e59db01c 	ldr	fp, [sp, #28]
    a164:	eafffec3 	b	9c78 <_doprnt.constprop.1+0x68>
    a168:	e3a03000 	mov	r3, #0
    a16c:	e5cd3029 	strb	r3, [sp, #41]	; 0x29
    a170:	e28d3028 	add	r3, sp, #40	; 0x28
    a174:	e58d3018 	str	r3, [sp, #24]
    a178:	e49b3004 	ldr	r3, [fp], #4
    a17c:	e58db01c 	str	fp, [sp, #28]
    a180:	e5cd3028 	strb	r3, [sp, #40]	; 0x28
    a184:	e59d0018 	ldr	r0, [sp, #24]
    a188:	e28aa001 	add	sl, sl, #1
    a18c:	fa000e3f 	blx	da90 <strlen>
    a190:	e3550000 	cmp	r5, #0
    a194:	e1a0b000 	mov	fp, r0
    a198:	ba000058 	blt	a300 <_doprnt.constprop.1+0x6f0>
    a19c:	e15b0005 	cmp	fp, r5
    a1a0:	e3a03000 	mov	r3, #0
    a1a4:	a1a0b005 	movge	fp, r5
    a1a8:	e58d3008 	str	r3, [sp, #8]
    a1ac:	e58d300c 	str	r3, [sp, #12]
    a1b0:	e1a0300b 	mov	r3, fp
    a1b4:	e1540003 	cmp	r4, r3
    a1b8:	ca00003e 	bgt	a2b8 <_doprnt.constprop.1+0x6a8>
    a1bc:	e59d3000 	ldr	r3, [sp]
    a1c0:	e3a0e000 	mov	lr, #0
    a1c4:	e59d2010 	ldr	r2, [sp, #16]
    a1c8:	e3530030 	cmp	r3, #48	; 0x30
    a1cc:	13a02000 	movne	r2, #0
    a1d0:	02022001 	andeq	r2, r2, #1
    a1d4:	e1a0300e 	mov	r3, lr
    a1d8:	e3520000 	cmp	r2, #0
    a1dc:	11a0e003 	movne	lr, r3
    a1e0:	13a03000 	movne	r3, #0
    a1e4:	eaffff86 	b	a004 <_doprnt.constprop.1+0x3f4>
    a1e8:	e1a0100b 	mov	r1, fp
    a1ec:	e30d3cdc 	movw	r3, #56540	; 0xdcdc
    a1f0:	e3403000 	movt	r3, #0
    a1f4:	e4912004 	ldr	r2, [r1], #4
    a1f8:	e58d101c 	str	r1, [sp, #28]
    a1fc:	e3520000 	cmp	r2, #0
    a200:	01a02003 	moveq	r2, r3
    a204:	e58d2018 	str	r2, [sp, #24]
    a208:	eaffffdd 	b	a184 <_doprnt.constprop.1+0x574>
    a20c:	e49b2004 	ldr	r2, [fp], #4
    a210:	e28aa001 	add	sl, sl, #1
    a214:	e3a03010 	mov	r3, #16
    a218:	e3a0e000 	mov	lr, #0
    a21c:	e3a04004 	mov	r4, #4
    a220:	e3a01030 	mov	r1, #48	; 0x30
    a224:	e58d400c 	str	r4, [sp, #12]
    a228:	e58db01c 	str	fp, [sp, #28]
    a22c:	e58d1000 	str	r1, [sp]
    a230:	e3071830 	movw	r1, #30768	; 0x7830
    a234:	e1cd12b4 	strh	r1, [sp, #36]	; 0x24
    a238:	e3a01002 	mov	r1, #2
    a23c:	e58d1008 	str	r1, [sp, #8]
    a240:	eaffff3a 	b	9f30 <_doprnt.constprop.1+0x320>
    a244:	e3550002 	cmp	r5, #2
    a248:	1a000095 	bne	a4a4 <_doprnt.constprop.1+0x894>
    a24c:	e59d2004 	ldr	r2, [sp, #4]
    a250:	e2888002 	add	r8, r8, #2
    a254:	e3520000 	cmp	r2, #0
    a258:	1affff84 	bne	a070 <_doprnt.constprop.1+0x460>
    a25c:	e3530000 	cmp	r3, #0
    a260:	0affff82 	beq	a070 <_doprnt.constprop.1+0x460>
    a264:	e58de008 	str	lr, [sp, #8]
    a268:	e1a05002 	mov	r5, r2
    a26c:	e5990000 	ldr	r0, [r9]
    a270:	e5974000 	ldr	r4, [r7]
    a274:	e596c000 	ldr	ip, [r6]
    a278:	e59de000 	ldr	lr, [sp]
    a27c:	e1a0100c 	mov	r1, ip
    a280:	e1500004 	cmp	r0, r4
    a284:	e2822001 	add	r2, r2, #1
    a288:	b2800001 	addlt	r0, r0, #1
    a28c:	b3a05001 	movlt	r5, #1
    a290:	b4c1e001 	strblt	lr, [r1], #1
    a294:	b1a0c001 	movlt	ip, r1
    a298:	b5861000 	strlt	r1, [r6]
    a29c:	e1520003 	cmp	r2, r3
    a2a0:	1afffff5 	bne	a27c <_doprnt.constprop.1+0x66c>
    a2a4:	e3550000 	cmp	r5, #0
    a2a8:	e59de008 	ldr	lr, [sp, #8]
    a2ac:	e0888003 	add	r8, r8, r3
    a2b0:	15890000 	strne	r0, [r9]
    a2b4:	eaffff6d 	b	a070 <_doprnt.constprop.1+0x460>
    a2b8:	e59d2010 	ldr	r2, [sp, #16]
    a2bc:	e3a0e000 	mov	lr, #0
    a2c0:	e59d1000 	ldr	r1, [sp]
    a2c4:	e3510030 	cmp	r1, #48	; 0x30
    a2c8:	13a02000 	movne	r2, #0
    a2cc:	02022001 	andeq	r2, r2, #1
    a2d0:	e0443003 	sub	r3, r4, r3
    a2d4:	eaffffbf 	b	a1d8 <_doprnt.constprop.1+0x5c8>
    a2d8:	e5da3001 	ldrb	r3, [sl, #1]
    a2dc:	e1a0b002 	mov	fp, r2
    a2e0:	e3a05001 	mov	r5, #1
    a2e4:	e3a02000 	mov	r2, #0
    a2e8:	e2644000 	rsb	r4, r4, #0
    a2ec:	e58d2010 	str	r2, [sp, #16]
    a2f0:	e28aa001 	add	sl, sl, #1
    a2f4:	e3a02020 	mov	r2, #32
    a2f8:	e88d0024 	stm	sp, {r2, r5}
    a2fc:	eafffe83 	b	9d10 <_doprnt.constprop.1+0x100>
    a300:	e3a03000 	mov	r3, #0
    a304:	e58d3008 	str	r3, [sp, #8]
    a308:	e1a02003 	mov	r2, r3
    a30c:	e1a03000 	mov	r3, r0
    a310:	e58d200c 	str	r2, [sp, #12]
    a314:	eaffffa6 	b	a1b4 <_doprnt.constprop.1+0x5a4>
    a318:	e59d3018 	ldr	r3, [sp, #24]
    a31c:	e28d2028 	add	r2, sp, #40	; 0x28
    a320:	e58d2018 	str	r2, [sp, #24]
    a324:	e0803003 	add	r3, r0, r3
    a328:	eaffffa1 	b	a1b4 <_doprnt.constprop.1+0x5a4>
    a32c:	e58d1018 	str	r1, [sp, #24]
    a330:	e731f312 	udiv	r1, r2, r3
    a334:	e1530002 	cmp	r3, r2
    a338:	e0622193 	mls	r2, r3, r1, r2
    a33c:	e7dc0002 	ldrb	r0, [ip, r2]
    a340:	e5cd004d 	strb	r0, [sp, #77]	; 0x4d
    a344:	8a00004e 	bhi	a484 <_doprnt.constprop.1+0x874>
    a348:	e28de04d 	add	lr, sp, #77	; 0x4d
    a34c:	e3a02001 	mov	r2, #1
    a350:	e730f311 	udiv	r0, r1, r3
    a354:	e1510003 	cmp	r1, r3
    a358:	e2822001 	add	r2, r2, #1
    a35c:	e06b1093 	mls	fp, r3, r0, r1
    a360:	e1a01000 	mov	r1, r0
    a364:	e7dc000b 	ldrb	r0, [ip, fp]
    a368:	e5ee0001 	strb	r0, [lr, #1]!
    a36c:	2afffff7 	bcs	a350 <_doprnt.constprop.1+0x740>
    a370:	eaffff09 	b	9f9c <_doprnt.constprop.1+0x38c>
    a374:	e28d2028 	add	r2, sp, #40	; 0x28
    a378:	e3a01020 	mov	r1, #32
    a37c:	e58d2018 	str	r2, [sp, #24]
    a380:	e3a02000 	mov	r2, #0
    a384:	e58d1000 	str	r1, [sp]
    a388:	eaffffd0 	b	a2d0 <_doprnt.constprop.1+0x6c0>
    a38c:	e3a03000 	mov	r3, #0
    a390:	e58d300c 	str	r3, [sp, #12]
    a394:	e1a0e003 	mov	lr, r3
    a398:	e3a0300a 	mov	r3, #10
    a39c:	e1a0000e 	mov	r0, lr
    a3a0:	eafffed6 	b	9f00 <_doprnt.constprop.1+0x2f0>
    a3a4:	e3a0e000 	mov	lr, #0
    a3a8:	e3510001 	cmp	r1, #1
    a3ac:	e3a03004 	mov	r3, #4
    a3b0:	e3a00000 	mov	r0, #0
    a3b4:	e58d300c 	str	r3, [sp, #12]
    a3b8:	03a01003 	moveq	r1, #3
    a3bc:	e3a03010 	mov	r3, #16
    a3c0:	eafffece 	b	9f00 <_doprnt.constprop.1+0x2f0>
    a3c4:	e3a0e001 	mov	lr, #1
    a3c8:	eafffff6 	b	a3a8 <_doprnt.constprop.1+0x798>
    a3cc:	e3a00000 	mov	r0, #0
    a3d0:	e3a03001 	mov	r3, #1
    a3d4:	e1a0e000 	mov	lr, r0
    a3d8:	e58d300c 	str	r3, [sp, #12]
    a3dc:	e3a03002 	mov	r3, #2
    a3e0:	eafffec6 	b	9f00 <_doprnt.constprop.1+0x2f0>
    a3e4:	e3a03001 	mov	r3, #1
    a3e8:	e2622000 	rsb	r2, r2, #0
    a3ec:	e58d3018 	str	r3, [sp, #24]
    a3f0:	e3a0302d 	mov	r3, #45	; 0x2d
    a3f4:	e58d300c 	str	r3, [sp, #12]
    a3f8:	eafffeb2 	b	9ec8 <_doprnt.constprop.1+0x2b8>
    a3fc:	e3510003 	cmp	r1, #3
    a400:	0affff8a 	beq	a230 <_doprnt.constprop.1+0x620>
    a404:	e58d0008 	str	r0, [sp, #8]
    a408:	eafffec8 	b	9f30 <_doprnt.constprop.1+0x320>
    a40c:	e3a03003 	mov	r3, #3
    a410:	e1a00001 	mov	r0, r1
    a414:	e58d300c 	str	r3, [sp, #12]
    a418:	e3a0e000 	mov	lr, #0
    a41c:	e3a03008 	mov	r3, #8
    a420:	e3a01002 	mov	r1, #2
    a424:	eafffeb5 	b	9f00 <_doprnt.constprop.1+0x2f0>
    a428:	e3530000 	cmp	r3, #0
    a42c:	0affff4b 	beq	a160 <_doprnt.constprop.1+0x550>
    a430:	e3a04000 	mov	r4, #0
    a434:	e5990000 	ldr	r0, [r9]
    a438:	e597e000 	ldr	lr, [r7]
    a43c:	e1a05002 	mov	r5, r2
    a440:	e596c000 	ldr	ip, [r6]
    a444:	e1a02004 	mov	r2, r4
    a448:	e59db000 	ldr	fp, [sp]
    a44c:	e1a0100c 	mov	r1, ip
    a450:	e150000e 	cmp	r0, lr
    a454:	e2822001 	add	r2, r2, #1
    a458:	b2800001 	addlt	r0, r0, #1
    a45c:	b1a04005 	movlt	r4, r5
    a460:	b4c1b001 	strblt	fp, [r1], #1
    a464:	b1a0c001 	movlt	ip, r1
    a468:	b5861000 	strlt	r1, [r6]
    a46c:	e1530002 	cmp	r3, r2
    a470:	1afffff5 	bne	a44c <_doprnt.constprop.1+0x83c>
    a474:	e3540000 	cmp	r4, #0
    a478:	e0888003 	add	r8, r8, r3
    a47c:	15890000 	strne	r0, [r9]
    a480:	eaffff36 	b	a160 <_doprnt.constprop.1+0x550>
    a484:	e3a02001 	mov	r2, #1
    a488:	eafffec3 	b	9f9c <_doprnt.constprop.1+0x38c>
    a48c:	e3a02001 	mov	r2, #1
    a490:	e58d300c 	str	r3, [sp, #12]
    a494:	e58d3018 	str	r3, [sp, #24]
    a498:	eafffebf 	b	9f9c <_doprnt.constprop.1+0x38c>
    a49c:	e2888001 	add	r8, r8, #1
    a4a0:	eafffeee 	b	a060 <_doprnt.constprop.1+0x450>
    a4a4:	e2888001 	add	r8, r8, #1
    a4a8:	eafffeed 	b	a064 <_doprnt.constprop.1+0x454>
    a4ac:	0000dcf4 	.word	0x0000dcf4

0000a4b0 <_doprnt>:
    a4b0:	e92d4ff0 	push	{r4, r5, r6, r7, r8, r9, sl, fp, lr}
    a4b4:	e1a07000 	mov	r7, r0
    a4b8:	e5d00000 	ldrb	r0, [r0]
    a4bc:	e24dd074 	sub	sp, sp, #116	; 0x74
    a4c0:	e3500000 	cmp	r0, #0
    a4c4:	0a00022d 	beq	ad80 <_doprnt+0x8d0>
    a4c8:	e1a0a003 	mov	sl, r3
    a4cc:	e1a08001 	mov	r8, r1
    a4d0:	e30d3ce4 	movw	r3, #56548	; 0xdce4
    a4d4:	e3403000 	movt	r3, #0
    a4d8:	e1a06002 	mov	r6, r2
    a4dc:	e3a09000 	mov	r9, #0
    a4e0:	e58d3014 	str	r3, [sp, #20]
    a4e4:	ea000008 	b	a50c <_doprnt+0x5c>
    a4e8:	e1a0100a 	mov	r1, sl
    a4ec:	e12fff36 	blx	r6
    a4f0:	e3700001 	cmn	r0, #1
    a4f4:	0a0000b6 	beq	a7d4 <_doprnt+0x324>
    a4f8:	e2899001 	add	r9, r9, #1
    a4fc:	e2877001 	add	r7, r7, #1
    a500:	e5d70000 	ldrb	r0, [r7]
    a504:	e3500000 	cmp	r0, #0
    a508:	0a0000b2 	beq	a7d8 <_doprnt+0x328>
    a50c:	e3500025 	cmp	r0, #37	; 0x25
    a510:	1afffff4 	bne	a4e8 <_doprnt+0x38>
    a514:	e5d73001 	ldrb	r3, [r7, #1]
    a518:	e2872001 	add	r2, r7, #1
    a51c:	e3530025 	cmp	r3, #37	; 0x25
    a520:	01a07002 	moveq	r7, r2
    a524:	0affffef 	beq	a4e8 <_doprnt+0x38>
    a528:	e3a0c000 	mov	ip, #0
    a52c:	e3a0b020 	mov	fp, #32
    a530:	e353002d 	cmp	r3, #45	; 0x2d
    a534:	e58dc000 	str	ip, [sp]
    a538:	0a000045 	beq	a654 <_doprnt+0x1a4>
    a53c:	e3530030 	cmp	r3, #48	; 0x30
    a540:	0a00003f 	beq	a644 <_doprnt+0x194>
    a544:	e3530023 	cmp	r3, #35	; 0x23
    a548:	0a000044 	beq	a660 <_doprnt+0x1b0>
    a54c:	e353002a 	cmp	r3, #42	; 0x2a
    a550:	1a0000a3 	bne	a7e4 <_doprnt+0x334>
    a554:	e4984004 	ldr	r4, [r8], #4
    a558:	e3540000 	cmp	r4, #0
    a55c:	ba00016b 	blt	ab10 <_doprnt+0x660>
    a560:	e5d23001 	ldrb	r3, [r2, #1]
    a564:	e2822001 	add	r2, r2, #1
    a568:	e59d1000 	ldr	r1, [sp]
    a56c:	e3510000 	cmp	r1, #0
    a570:	e2211001 	eor	r1, r1, #1
    a574:	13a0b020 	movne	fp, #32
    a578:	e58d1010 	str	r1, [sp, #16]
    a57c:	e353002e 	cmp	r3, #46	; 0x2e
    a580:	13e01000 	mvnne	r1, #0
    a584:	158d1004 	strne	r1, [sp, #4]
    a588:	0a0000c9 	beq	a8b4 <_doprnt+0x404>
    a58c:	e353006c 	cmp	r3, #108	; 0x6c
    a590:	0a0000a0 	beq	a818 <_doprnt+0x368>
    a594:	e3530068 	cmp	r3, #104	; 0x68
    a598:	1a000004 	bne	a5b0 <_doprnt+0x100>
    a59c:	e5d23001 	ldrb	r3, [r2, #1]
    a5a0:	e3530068 	cmp	r3, #104	; 0x68
    a5a4:	12822001 	addne	r2, r2, #1
    a5a8:	05d23002 	ldrbeq	r3, [r2, #2]
    a5ac:	02822002 	addeq	r2, r2, #2
    a5b0:	e2433058 	sub	r3, r3, #88	; 0x58
    a5b4:	e3530020 	cmp	r3, #32
    a5b8:	979ff103 	ldrls	pc, [pc, r3, lsl #2]
    a5bc:	eaffffc9 	b	a4e8 <_doprnt+0x38>
    a5c0:	0000a668 	.word	0x0000a668
    a5c4:	0000a4e8 	.word	0x0000a4e8
    a5c8:	0000a4e8 	.word	0x0000a4e8
    a5cc:	0000a4e8 	.word	0x0000a4e8
    a5d0:	0000a4e8 	.word	0x0000a4e8
    a5d4:	0000a4e8 	.word	0x0000a4e8
    a5d8:	0000a4e8 	.word	0x0000a4e8
    a5dc:	0000a4e8 	.word	0x0000a4e8
    a5e0:	0000a4e8 	.word	0x0000a4e8
    a5e4:	0000a4e8 	.word	0x0000a4e8
    a5e8:	0000ac94 	.word	0x0000ac94
    a5ec:	0000a960 	.word	0x0000a960
    a5f0:	0000a924 	.word	0x0000a924
    a5f4:	0000a4e8 	.word	0x0000a4e8
    a5f8:	0000a4e8 	.word	0x0000a4e8
    a5fc:	0000a4e8 	.word	0x0000a4e8
    a600:	0000a4e8 	.word	0x0000a4e8
    a604:	0000a924 	.word	0x0000a924
    a608:	0000a4e8 	.word	0x0000a4e8
    a60c:	0000a4e8 	.word	0x0000a4e8
    a610:	0000a4e8 	.word	0x0000a4e8
    a614:	0000a4e8 	.word	0x0000a4e8
    a618:	0000a4e8 	.word	0x0000a4e8
    a61c:	0000aa60 	.word	0x0000aa60
    a620:	0000aa30 	.word	0x0000aa30
    a624:	0000a4e8 	.word	0x0000a4e8
    a628:	0000a4e8 	.word	0x0000a4e8
    a62c:	0000aa0c 	.word	0x0000aa0c
    a630:	0000a4e8 	.word	0x0000a4e8
    a634:	0000ac84 	.word	0x0000ac84
    a638:	0000a4e8 	.word	0x0000a4e8
    a63c:	0000a4e8 	.word	0x0000a4e8
    a640:	0000a9ec 	.word	0x0000a9ec
    a644:	e1a0b003 	mov	fp, r3
    a648:	e5f23001 	ldrb	r3, [r2, #1]!
    a64c:	e353002d 	cmp	r3, #45	; 0x2d
    a650:	1affffb9 	bne	a53c <_doprnt+0x8c>
    a654:	e3a03001 	mov	r3, #1
    a658:	e58d3000 	str	r3, [sp]
    a65c:	eafffff9 	b	a648 <_doprnt+0x198>
    a660:	e3a0c001 	mov	ip, #1
    a664:	eafffff7 	b	a648 <_doprnt+0x198>
    a668:	e35c0001 	cmp	ip, #1
    a66c:	0a0001aa 	beq	ad1c <_doprnt+0x86c>
    a670:	e3a03004 	mov	r3, #4
    a674:	e3a00010 	mov	r0, #16
    a678:	e58d3008 	str	r3, [sp, #8]
    a67c:	e3a01001 	mov	r1, #1
    a680:	e3a03000 	mov	r3, #0
    a684:	e1a0e008 	mov	lr, r8
    a688:	e2827001 	add	r7, r2, #1
    a68c:	e49e5004 	ldr	r5, [lr], #4
    a690:	e58de01c 	str	lr, [sp, #28]
    a694:	e3550000 	cmp	r5, #0
    a698:	03a03000 	moveq	r3, #0
    a69c:	e3530000 	cmp	r3, #0
    a6a0:	13a03030 	movne	r3, #48	; 0x30
    a6a4:	15cd3024 	strbne	r3, [sp, #36]	; 0x24
    a6a8:	13a03001 	movne	r3, #1
    a6ac:	0a000197 	beq	ad10 <_doprnt+0x860>
    a6b0:	e3a02000 	mov	r2, #0
    a6b4:	e5cd204c 	strb	r2, [sp, #76]	; 0x4c
    a6b8:	e59d2014 	ldr	r2, [sp, #20]
    a6bc:	e3510000 	cmp	r1, #0
    a6c0:	e59fe6ec 	ldr	lr, [pc, #1772]	; adb4 <_doprnt+0x904>
    a6c4:	11a0e002 	movne	lr, r2
    a6c8:	e59d2008 	ldr	r2, [sp, #8]
    a6cc:	e3520000 	cmp	r2, #0
    a6d0:	0a000137 	beq	abb4 <_doprnt+0x704>
    a6d4:	e3e00000 	mvn	r0, #0
    a6d8:	e1b01235 	lsrs	r1, r5, r2
    a6dc:	e1e00210 	mvn	r0, r0, lsl r2
    a6e0:	e1a08002 	mov	r8, r2
    a6e4:	e0055000 	and	r5, r5, r0
    a6e8:	e7dec005 	ldrb	ip, [lr, r5]
    a6ec:	e5cdc04d 	strb	ip, [sp, #77]	; 0x4d
    a6f0:	0a00019e 	beq	ad70 <_doprnt+0x8c0>
    a6f4:	e28d504d 	add	r5, sp, #77	; 0x4d
    a6f8:	e3a02001 	mov	r2, #1
    a6fc:	e000c001 	and	ip, r0, r1
    a700:	e2822001 	add	r2, r2, #1
    a704:	e1b01831 	lsrs	r1, r1, r8
    a708:	e7dec00c 	ldrb	ip, [lr, ip]
    a70c:	e5e5c001 	strb	ip, [r5, #1]!
    a710:	1afffff9 	bne	a6fc <_doprnt+0x24c>
    a714:	e58d1008 	str	r1, [sp, #8]
    a718:	e58d1018 	str	r1, [sp, #24]
    a71c:	e28d104c 	add	r1, sp, #76	; 0x4c
    a720:	e28d0028 	add	r0, sp, #40	; 0x28
    a724:	e0812002 	add	r2, r1, r2
    a728:	ea000000 	b	a730 <_doprnt+0x280>
    a72c:	e572c001 	ldrb	ip, [r2, #-1]!
    a730:	e1510002 	cmp	r1, r2
    a734:	e4c0c001 	strb	ip, [r0], #1
    a738:	1afffffb 	bne	a72c <_doprnt+0x27c>
    a73c:	e28d0028 	add	r0, sp, #40	; 0x28
    a740:	e58d300c 	str	r3, [sp, #12]
    a744:	fa000cd1 	blx	da90 <strlen>
    a748:	e59d3004 	ldr	r3, [sp, #4]
    a74c:	e1a08000 	mov	r8, r0
    a750:	e3530000 	cmp	r3, #0
    a754:	e59d300c 	ldr	r3, [sp, #12]
    a758:	ba000110 	blt	aba0 <_doprnt+0x6f0>
    a75c:	e59d2004 	ldr	r2, [sp, #4]
    a760:	e1520000 	cmp	r2, r0
    a764:	c0422000 	subgt	r2, r2, r0
    a768:	c58d200c 	strgt	r2, [sp, #12]
    a76c:	d3a02000 	movle	r2, #0
    a770:	d58d0004 	strle	r0, [sp, #4]
    a774:	d58d200c 	strle	r2, [sp, #12]
    a778:	e59d2018 	ldr	r2, [sp, #24]
    a77c:	e59d1004 	ldr	r1, [sp, #4]
    a780:	e0822001 	add	r2, r2, r1
    a784:	e1540002 	cmp	r4, r2
    a788:	ca00011b 	bgt	abfc <_doprnt+0x74c>
    a78c:	e3a0b020 	mov	fp, #32
    a790:	e28d2028 	add	r2, sp, #40	; 0x28
    a794:	e58d2018 	str	r2, [sp, #24]
    a798:	e3a02000 	mov	r2, #0
    a79c:	e58d2004 	str	r2, [sp, #4]
    a7a0:	e3530000 	cmp	r3, #0
    a7a4:	0a0000b5 	beq	aa80 <_doprnt+0x5d0>
    a7a8:	e0834009 	add	r4, r3, r9
    a7ac:	e28d5024 	add	r5, sp, #36	; 0x24
    a7b0:	ea000001 	b	a7bc <_doprnt+0x30c>
    a7b4:	e1590004 	cmp	r9, r4
    a7b8:	0a0000b1 	beq	aa84 <_doprnt+0x5d4>
    a7bc:	e4d50001 	ldrb	r0, [r5], #1
    a7c0:	e1a0100a 	mov	r1, sl
    a7c4:	e12fff36 	blx	r6
    a7c8:	e2899001 	add	r9, r9, #1
    a7cc:	e3700001 	cmn	r0, #1
    a7d0:	1afffff7 	bne	a7b4 <_doprnt+0x304>
    a7d4:	e3e09000 	mvn	r9, #0
    a7d8:	e1a00009 	mov	r0, r9
    a7dc:	e28dd074 	add	sp, sp, #116	; 0x74
    a7e0:	e8bd8ff0 	pop	{r4, r5, r6, r7, r8, r9, sl, fp, pc}
    a7e4:	e2431030 	sub	r1, r3, #48	; 0x30
    a7e8:	e3a04000 	mov	r4, #0
    a7ec:	e6efe071 	uxtb	lr, r1
    a7f0:	e35e0009 	cmp	lr, #9
    a7f4:	93a0500a 	movls	r5, #10
    a7f8:	8affff5a 	bhi	a568 <_doprnt+0xb8>
    a7fc:	e5f23001 	ldrb	r3, [r2, #1]!
    a800:	e0241495 	mla	r4, r5, r4, r1
    a804:	e2431030 	sub	r1, r3, #48	; 0x30
    a808:	e6efe071 	uxtb	lr, r1
    a80c:	e35e0009 	cmp	lr, #9
    a810:	9afffff9 	bls	a7fc <_doprnt+0x34c>
    a814:	eaffff53 	b	a568 <_doprnt+0xb8>
    a818:	e5d23001 	ldrb	r3, [r2, #1]
    a81c:	e2822001 	add	r2, r2, #1
    a820:	e2433058 	sub	r3, r3, #88	; 0x58
    a824:	e3530020 	cmp	r3, #32
    a828:	979ff103 	ldrls	pc, [pc, r3, lsl #2]
    a82c:	eaffff2d 	b	a4e8 <_doprnt+0x38>
    a830:	0000a668 	.word	0x0000a668
    a834:	0000a4e8 	.word	0x0000a4e8
    a838:	0000a4e8 	.word	0x0000a4e8
    a83c:	0000a4e8 	.word	0x0000a4e8
    a840:	0000a4e8 	.word	0x0000a4e8
    a844:	0000a4e8 	.word	0x0000a4e8
    a848:	0000a4e8 	.word	0x0000a4e8
    a84c:	0000a4e8 	.word	0x0000a4e8
    a850:	0000a4e8 	.word	0x0000a4e8
    a854:	0000a4e8 	.word	0x0000a4e8
    a858:	0000acf8 	.word	0x0000acf8
    a85c:	0000a960 	.word	0x0000a960
    a860:	0000ac78 	.word	0x0000ac78
    a864:	0000a4e8 	.word	0x0000a4e8
    a868:	0000a4e8 	.word	0x0000a4e8
    a86c:	0000a4e8 	.word	0x0000a4e8
    a870:	0000a4e8 	.word	0x0000a4e8
    a874:	0000ac78 	.word	0x0000ac78
    a878:	0000a4e8 	.word	0x0000a4e8
    a87c:	0000a4e8 	.word	0x0000a4e8
    a880:	0000a4e8 	.word	0x0000a4e8
    a884:	0000a4e8 	.word	0x0000a4e8
    a888:	0000a4e8 	.word	0x0000a4e8
    a88c:	0000acc4 	.word	0x0000acc4
    a890:	0000aa30 	.word	0x0000aa30
    a894:	0000a4e8 	.word	0x0000a4e8
    a898:	0000a4e8 	.word	0x0000a4e8
    a89c:	0000aa0c 	.word	0x0000aa0c
    a8a0:	0000a4e8 	.word	0x0000a4e8
    a8a4:	0000ace4 	.word	0x0000ace4
    a8a8:	0000a4e8 	.word	0x0000a4e8
    a8ac:	0000a4e8 	.word	0x0000a4e8
    a8b0:	0000a9ec 	.word	0x0000a9ec
    a8b4:	e5d23001 	ldrb	r3, [r2, #1]
    a8b8:	e353002a 	cmp	r3, #42	; 0x2a
    a8bc:	1a000004 	bne	a8d4 <_doprnt+0x424>
    a8c0:	e4981004 	ldr	r1, [r8], #4
    a8c4:	e2822002 	add	r2, r2, #2
    a8c8:	e5d23000 	ldrb	r3, [r2]
    a8cc:	e58d1004 	str	r1, [sp, #4]
    a8d0:	eaffff2d 	b	a58c <_doprnt+0xdc>
    a8d4:	e2431030 	sub	r1, r3, #48	; 0x30
    a8d8:	e2822001 	add	r2, r2, #1
    a8dc:	e6efe071 	uxtb	lr, r1
    a8e0:	e35e0009 	cmp	lr, #9
    a8e4:	83a01000 	movhi	r1, #0
    a8e8:	858d1004 	strhi	r1, [sp, #4]
    a8ec:	8affff26 	bhi	a58c <_doprnt+0xdc>
    a8f0:	e3a03000 	mov	r3, #0
    a8f4:	e58d0008 	str	r0, [sp, #8]
    a8f8:	e3a0500a 	mov	r5, #10
    a8fc:	e1a00003 	mov	r0, r3
    a900:	e5f23001 	ldrb	r3, [r2, #1]!
    a904:	e0201095 	mla	r0, r5, r0, r1
    a908:	e2431030 	sub	r1, r3, #48	; 0x30
    a90c:	e6efe071 	uxtb	lr, r1
    a910:	e35e0009 	cmp	lr, #9
    a914:	9afffff9 	bls	a900 <_doprnt+0x450>
    a918:	e58d0004 	str	r0, [sp, #4]
    a91c:	e59d0008 	ldr	r0, [sp, #8]
    a920:	eaffff19 	b	a58c <_doprnt+0xdc>
    a924:	e1a03008 	mov	r3, r8
    a928:	e4935004 	ldr	r5, [r3], #4
    a92c:	e58d301c 	str	r3, [sp, #28]
    a930:	e3550000 	cmp	r5, #0
    a934:	ba0000c9 	blt	ac60 <_doprnt+0x7b0>
    a938:	e3a03000 	mov	r3, #0
    a93c:	e58d3018 	str	r3, [sp, #24]
    a940:	e58d3008 	str	r3, [sp, #8]
    a944:	e3a03000 	mov	r3, #0
    a948:	e59fe464 	ldr	lr, [pc, #1124]	; adb4 <_doprnt+0x904>
    a94c:	e5cd304c 	strb	r3, [sp, #76]	; 0x4c
    a950:	e2827001 	add	r7, r2, #1
    a954:	e3a03000 	mov	r3, #0
    a958:	e3a0000a 	mov	r0, #10
    a95c:	ea000095 	b	abb8 <_doprnt+0x708>
    a960:	e3a03000 	mov	r3, #0
    a964:	e5cd3029 	strb	r3, [sp, #41]	; 0x29
    a968:	e28d3028 	add	r3, sp, #40	; 0x28
    a96c:	e58d3018 	str	r3, [sp, #24]
    a970:	e4983004 	ldr	r3, [r8], #4
    a974:	e58d801c 	str	r8, [sp, #28]
    a978:	e5cd3028 	strb	r3, [sp, #40]	; 0x28
    a97c:	e59d0018 	ldr	r0, [sp, #24]
    a980:	e2827001 	add	r7, r2, #1
    a984:	fa000c41 	blx	da90 <strlen>
    a988:	e59d3004 	ldr	r3, [sp, #4]
    a98c:	e1a08000 	mov	r8, r0
    a990:	e3530000 	cmp	r3, #0
    a994:	ba00007d 	blt	ab90 <_doprnt+0x6e0>
    a998:	e1a02003 	mov	r2, r3
    a99c:	e1580003 	cmp	r8, r3
    a9a0:	a1a08002 	movge	r8, r2
    a9a4:	e3a03000 	mov	r3, #0
    a9a8:	e1a02008 	mov	r2, r8
    a9ac:	e58d3008 	str	r3, [sp, #8]
    a9b0:	e1540002 	cmp	r4, r2
    a9b4:	ca00004c 	bgt	aaec <_doprnt+0x63c>
    a9b8:	e59d1010 	ldr	r1, [sp, #16]
    a9bc:	e3a02000 	mov	r2, #0
    a9c0:	e58d200c 	str	r2, [sp, #12]
    a9c4:	e35b0030 	cmp	fp, #48	; 0x30
    a9c8:	13a01000 	movne	r1, #0
    a9cc:	02011001 	andeq	r1, r1, #1
    a9d0:	e58d2004 	str	r2, [sp, #4]
    a9d4:	e3510000 	cmp	r1, #0
    a9d8:	159d2004 	ldrne	r2, [sp, #4]
    a9dc:	158d200c 	strne	r2, [sp, #12]
    a9e0:	13a02000 	movne	r2, #0
    a9e4:	158d2004 	strne	r2, [sp, #4]
    a9e8:	eaffff6c 	b	a7a0 <_doprnt+0x2f0>
    a9ec:	e35c0001 	cmp	ip, #1
    a9f0:	e3a00010 	mov	r0, #16
    a9f4:	03a0c003 	moveq	ip, #3
    a9f8:	e3a03004 	mov	r3, #4
    a9fc:	e58d3008 	str	r3, [sp, #8]
    aa00:	e3a03000 	mov	r3, #0
    aa04:	e1a01003 	mov	r1, r3
    aa08:	eaffff1d 	b	a684 <_doprnt+0x1d4>
    aa0c:	e1a00008 	mov	r0, r8
    aa10:	e30d3cdc 	movw	r3, #56540	; 0xdcdc
    aa14:	e3403000 	movt	r3, #0
    aa18:	e4901004 	ldr	r1, [r0], #4
    aa1c:	e58d001c 	str	r0, [sp, #28]
    aa20:	e3510000 	cmp	r1, #0
    aa24:	01a01003 	moveq	r1, r3
    aa28:	e58d1018 	str	r1, [sp, #24]
    aa2c:	eaffffd2 	b	a97c <_doprnt+0x4cc>
    aa30:	e4985004 	ldr	r5, [r8], #4
    aa34:	e2827001 	add	r7, r2, #1
    aa38:	e3a00010 	mov	r0, #16
    aa3c:	e3a01000 	mov	r1, #0
    aa40:	e3a0b030 	mov	fp, #48	; 0x30
    aa44:	e3a04004 	mov	r4, #4
    aa48:	e58d801c 	str	r8, [sp, #28]
    aa4c:	e58d4008 	str	r4, [sp, #8]
    aa50:	e3073830 	movw	r3, #30768	; 0x7830
    aa54:	e1cd32b4 	strh	r3, [sp, #36]	; 0x24
    aa58:	e3a03002 	mov	r3, #2
    aa5c:	eaffff13 	b	a6b0 <_doprnt+0x200>
    aa60:	e35c0001 	cmp	ip, #1
    aa64:	0a000090 	beq	acac <_doprnt+0x7fc>
    aa68:	e3a03000 	mov	r3, #0
    aa6c:	e3a01003 	mov	r1, #3
    aa70:	e3a00008 	mov	r0, #8
    aa74:	e58d1008 	str	r1, [sp, #8]
    aa78:	e1a01003 	mov	r1, r3
    aa7c:	eaffff00 	b	a684 <_doprnt+0x1d4>
    aa80:	e1a04009 	mov	r4, r9
    aa84:	e59d3000 	ldr	r3, [sp]
    aa88:	e3530000 	cmp	r3, #0
    aa8c:	0a00005f 	beq	ac10 <_doprnt+0x760>
    aa90:	e59d3008 	ldr	r3, [sp, #8]
    aa94:	e3530000 	cmp	r3, #0
    aa98:	0a000005 	beq	aab4 <_doprnt+0x604>
    aa9c:	e1a00003 	mov	r0, r3
    aaa0:	e1a0100a 	mov	r1, sl
    aaa4:	e12fff36 	blx	r6
    aaa8:	e3700001 	cmn	r0, #1
    aaac:	0affff48 	beq	a7d4 <_doprnt+0x324>
    aab0:	e2844001 	add	r4, r4, #1
    aab4:	e59d300c 	ldr	r3, [sp, #12]
    aab8:	e3530000 	cmp	r3, #0
    aabc:	0a00001c 	beq	ab34 <_doprnt+0x684>
    aac0:	e0845003 	add	r5, r4, r3
    aac4:	ea000001 	b	aad0 <_doprnt+0x620>
    aac8:	e1540005 	cmp	r4, r5
    aacc:	0a000019 	beq	ab38 <_doprnt+0x688>
    aad0:	e1a0100a 	mov	r1, sl
    aad4:	e3a00030 	mov	r0, #48	; 0x30
    aad8:	e12fff36 	blx	r6
    aadc:	e2844001 	add	r4, r4, #1
    aae0:	e3700001 	cmn	r0, #1
    aae4:	1afffff7 	bne	aac8 <_doprnt+0x618>
    aae8:	eaffff39 	b	a7d4 <_doprnt+0x324>
    aaec:	e59d1010 	ldr	r1, [sp, #16]
    aaf0:	e3a00000 	mov	r0, #0
    aaf4:	e58d000c 	str	r0, [sp, #12]
    aaf8:	e35b0030 	cmp	fp, #48	; 0x30
    aafc:	13a01000 	movne	r1, #0
    ab00:	02011001 	andeq	r1, r1, #1
    ab04:	e0442002 	sub	r2, r4, r2
    ab08:	e58d2004 	str	r2, [sp, #4]
    ab0c:	eaffffb0 	b	a9d4 <_doprnt+0x524>
    ab10:	e3a01000 	mov	r1, #0
    ab14:	e5d23001 	ldrb	r3, [r2, #1]
    ab18:	e58d1010 	str	r1, [sp, #16]
    ab1c:	e2644000 	rsb	r4, r4, #0
    ab20:	e3a01001 	mov	r1, #1
    ab24:	e2822001 	add	r2, r2, #1
    ab28:	e3a0b020 	mov	fp, #32
    ab2c:	e58d1000 	str	r1, [sp]
    ab30:	eafffe91 	b	a57c <_doprnt+0xcc>
    ab34:	e1a05004 	mov	r5, r4
    ab38:	e3580000 	cmp	r8, #0
    ab3c:	da000093 	ble	ad90 <_doprnt+0x8e0>
    ab40:	e59d3018 	ldr	r3, [sp, #24]
    ab44:	e58d7008 	str	r7, [sp, #8]
    ab48:	e2434001 	sub	r4, r3, #1
    ab4c:	e0838008 	add	r8, r3, r8
    ab50:	e1a07004 	mov	r7, r4
    ab54:	e2488001 	sub	r8, r8, #1
    ab58:	e1a04003 	mov	r4, r3
    ab5c:	ea000002 	b	ab6c <_doprnt+0x6bc>
    ab60:	e0899005 	add	r9, r9, r5
    ab64:	e1580007 	cmp	r8, r7
    ab68:	0a000036 	beq	ac48 <_doprnt+0x798>
    ab6c:	e1a09007 	mov	r9, r7
    ab70:	e1a0100a 	mov	r1, sl
    ab74:	e5f70001 	ldrb	r0, [r7, #1]!
    ab78:	e2899002 	add	r9, r9, #2
    ab7c:	e12fff36 	blx	r6
    ab80:	e0499004 	sub	r9, r9, r4
    ab84:	e3700001 	cmn	r0, #1
    ab88:	1afffff4 	bne	ab60 <_doprnt+0x6b0>
    ab8c:	eaffff10 	b	a7d4 <_doprnt+0x324>
    ab90:	e3a03000 	mov	r3, #0
    ab94:	e1a02000 	mov	r2, r0
    ab98:	e58d3008 	str	r3, [sp, #8]
    ab9c:	eaffff83 	b	a9b0 <_doprnt+0x500>
    aba0:	e59d2018 	ldr	r2, [sp, #24]
    aba4:	e28d1028 	add	r1, sp, #40	; 0x28
    aba8:	e58d1018 	str	r1, [sp, #24]
    abac:	e0822000 	add	r2, r2, r0
    abb0:	eaffff7e 	b	a9b0 <_doprnt+0x500>
    abb4:	e58d2018 	str	r2, [sp, #24]
    abb8:	e731f015 	udiv	r1, r5, r0
    abbc:	e1500005 	cmp	r0, r5
    abc0:	e0655190 	mls	r5, r0, r1, r5
    abc4:	e7dec005 	ldrb	ip, [lr, r5]
    abc8:	e5cdc04d 	strb	ip, [sp, #77]	; 0x4d
    abcc:	8a00006d 	bhi	ad88 <_doprnt+0x8d8>
    abd0:	e28d504d 	add	r5, sp, #77	; 0x4d
    abd4:	e3a02001 	mov	r2, #1
    abd8:	e73cf011 	udiv	ip, r1, r0
    abdc:	e1500001 	cmp	r0, r1
    abe0:	e2822001 	add	r2, r2, #1
    abe4:	e0681c90 	mls	r8, r0, ip, r1
    abe8:	e1a0100c 	mov	r1, ip
    abec:	e7dec008 	ldrb	ip, [lr, r8]
    abf0:	e5e5c001 	strb	ip, [r5, #1]!
    abf4:	9afffff7 	bls	abd8 <_doprnt+0x728>
    abf8:	eafffec7 	b	a71c <_doprnt+0x26c>
    abfc:	e28d1028 	add	r1, sp, #40	; 0x28
    ac00:	e3a0b020 	mov	fp, #32
    ac04:	e58d1018 	str	r1, [sp, #24]
    ac08:	e3a01000 	mov	r1, #0
    ac0c:	eaffffbc 	b	ab04 <_doprnt+0x654>
    ac10:	e59d3004 	ldr	r3, [sp, #4]
    ac14:	e3530000 	cmp	r3, #0
    ac18:	0affff9c 	beq	aa90 <_doprnt+0x5e0>
    ac1c:	e0849003 	add	r9, r4, r3
    ac20:	ea000001 	b	ac2c <_doprnt+0x77c>
    ac24:	e1540009 	cmp	r4, r9
    ac28:	0affff98 	beq	aa90 <_doprnt+0x5e0>
    ac2c:	e1a0100a 	mov	r1, sl
    ac30:	e1a0000b 	mov	r0, fp
    ac34:	e12fff36 	blx	r6
    ac38:	e2844001 	add	r4, r4, #1
    ac3c:	e3700001 	cmn	r0, #1
    ac40:	1afffff7 	bne	ac24 <_doprnt+0x774>
    ac44:	eafffee2 	b	a7d4 <_doprnt+0x324>
    ac48:	e59d7008 	ldr	r7, [sp, #8]
    ac4c:	e59d3000 	ldr	r3, [sp]
    ac50:	e3530000 	cmp	r3, #0
    ac54:	1a000037 	bne	ad38 <_doprnt+0x888>
    ac58:	e59d801c 	ldr	r8, [sp, #28]
    ac5c:	eafffe27 	b	a500 <_doprnt+0x50>
    ac60:	e3a03001 	mov	r3, #1
    ac64:	e2655000 	rsb	r5, r5, #0
    ac68:	e58d3018 	str	r3, [sp, #24]
    ac6c:	e3a0302d 	mov	r3, #45	; 0x2d
    ac70:	e58d3008 	str	r3, [sp, #8]
    ac74:	eaffff32 	b	a944 <_doprnt+0x494>
    ac78:	e4985004 	ldr	r5, [r8], #4
    ac7c:	e58d801c 	str	r8, [sp, #28]
    ac80:	eaffff2a 	b	a930 <_doprnt+0x480>
    ac84:	e3a03000 	mov	r3, #0
    ac88:	e3a0000a 	mov	r0, #10
    ac8c:	e58d3008 	str	r3, [sp, #8]
    ac90:	eaffff5a 	b	aa00 <_doprnt+0x550>
    ac94:	e3a03001 	mov	r3, #1
    ac98:	e3a00002 	mov	r0, #2
    ac9c:	e58d3008 	str	r3, [sp, #8]
    aca0:	e3a03000 	mov	r3, #0
    aca4:	e3a01000 	mov	r1, #0
    aca8:	eafffe75 	b	a684 <_doprnt+0x1d4>
    acac:	e1a0300c 	mov	r3, ip
    acb0:	e3a01003 	mov	r1, #3
    acb4:	e3a00008 	mov	r0, #8
    acb8:	e3a0c002 	mov	ip, #2
    acbc:	e58d1008 	str	r1, [sp, #8]
    acc0:	eafffff7 	b	aca4 <_doprnt+0x7f4>
    acc4:	e35c0001 	cmp	ip, #1
    acc8:	0a000032 	beq	ad98 <_doprnt+0x8e8>
    accc:	e3a03000 	mov	r3, #0
    acd0:	e3a00003 	mov	r0, #3
    acd4:	e1a01003 	mov	r1, r3
    acd8:	e58d0008 	str	r0, [sp, #8]
    acdc:	e3a00008 	mov	r0, #8
    ace0:	eafffe67 	b	a684 <_doprnt+0x1d4>
    ace4:	e3a03000 	mov	r3, #0
    ace8:	e3a0000a 	mov	r0, #10
    acec:	e1a01003 	mov	r1, r3
    acf0:	e58d3008 	str	r3, [sp, #8]
    acf4:	eafffe62 	b	a684 <_doprnt+0x1d4>
    acf8:	e3a03000 	mov	r3, #0
    acfc:	e3a00001 	mov	r0, #1
    ad00:	e1a01003 	mov	r1, r3
    ad04:	e58d0008 	str	r0, [sp, #8]
    ad08:	e3a00002 	mov	r0, #2
    ad0c:	eafffe5c 	b	a684 <_doprnt+0x1d4>
    ad10:	e35c0003 	cmp	ip, #3
    ad14:	0affff4d 	beq	aa50 <_doprnt+0x5a0>
    ad18:	eafffe64 	b	a6b0 <_doprnt+0x200>
    ad1c:	e3a03004 	mov	r3, #4
    ad20:	e1a0100c 	mov	r1, ip
    ad24:	e58d3008 	str	r3, [sp, #8]
    ad28:	e3a00010 	mov	r0, #16
    ad2c:	e3a03000 	mov	r3, #0
    ad30:	e3a0c003 	mov	ip, #3
    ad34:	eafffe52 	b	a684 <_doprnt+0x1d4>
    ad38:	e59d3004 	ldr	r3, [sp, #4]
    ad3c:	e3530000 	cmp	r3, #0
    ad40:	0affffc4 	beq	ac58 <_doprnt+0x7a8>
    ad44:	e0894003 	add	r4, r9, r3
    ad48:	ea000001 	b	ad54 <_doprnt+0x8a4>
    ad4c:	e1590004 	cmp	r9, r4
    ad50:	0affffc0 	beq	ac58 <_doprnt+0x7a8>
    ad54:	e1a0100a 	mov	r1, sl
    ad58:	e1a0000b 	mov	r0, fp
    ad5c:	e12fff36 	blx	r6
    ad60:	e2899001 	add	r9, r9, #1
    ad64:	e3700001 	cmn	r0, #1
    ad68:	1afffff7 	bne	ad4c <_doprnt+0x89c>
    ad6c:	eafffe98 	b	a7d4 <_doprnt+0x324>
    ad70:	e3a02001 	mov	r2, #1
    ad74:	e58d1008 	str	r1, [sp, #8]
    ad78:	e58d1018 	str	r1, [sp, #24]
    ad7c:	eafffe66 	b	a71c <_doprnt+0x26c>
    ad80:	e1a09000 	mov	r9, r0
    ad84:	eafffe93 	b	a7d8 <_doprnt+0x328>
    ad88:	e3a02001 	mov	r2, #1
    ad8c:	eafffe62 	b	a71c <_doprnt+0x26c>
    ad90:	e1a09005 	mov	r9, r5
    ad94:	eaffffac 	b	ac4c <_doprnt+0x79c>
    ad98:	e3a01003 	mov	r1, #3
    ad9c:	e1a0300c 	mov	r3, ip
    ada0:	e58d1008 	str	r1, [sp, #8]
    ada4:	e3a00008 	mov	r0, #8
    ada8:	e3a01000 	mov	r1, #0
    adac:	e3a0c002 	mov	ip, #2
    adb0:	eafffe33 	b	a684 <_doprnt+0x1d4>
    adb4:	0000dcf4 	.word	0x0000dcf4

0000adb8 <Init_EmbStdio>:
    adb8:	e30e3f30 	movw	r3, #61232	; 0xef30
    adbc:	e3403000 	movt	r3, #0
    adc0:	e5830004 	str	r0, [r3, #4]
    adc4:	e12fff1e 	bx	lr

0000adc8 <printf>:
    adc8:	e92d000f 	push	{r0, r1, r2, r3}
    adcc:	e30e3f30 	movw	r3, #61232	; 0xef30
    add0:	e3403000 	movt	r3, #0
    add4:	e52de004 	push	{lr}		; (str lr, [sp, #-4]!)
    add8:	e5932004 	ldr	r2, [r3, #4]
    addc:	e24dd00c 	sub	sp, sp, #12
    ade0:	e3520000 	cmp	r2, #0
    ade4:	0a00000d 	beq	ae20 <printf+0x58>
    ade8:	e30ecee0 	movw	ip, #61152	; 0xeee0
    adec:	e340c000 	movt	ip, #0
    adf0:	e28d1014 	add	r1, sp, #20
    adf4:	e59d0010 	ldr	r0, [sp, #16]
    adf8:	e3e0e102 	mvn	lr, #-2147483648	; 0x80000000
    adfc:	e58d1004 	str	r1, [sp, #4]
    ae00:	e58ce000 	str	lr, [ip]
    ae04:	e3a0c000 	mov	ip, #0
    ae08:	e583c000 	str	ip, [r3]
    ae0c:	ebfff95b 	bl	9380 <_doprnt.constprop.0>
    ae10:	e28dd00c 	add	sp, sp, #12
    ae14:	e49de004 	pop	{lr}		; (ldr lr, [sp], #4)
    ae18:	e28dd010 	add	sp, sp, #16
    ae1c:	e12fff1e 	bx	lr
    ae20:	e3e00000 	mvn	r0, #0
    ae24:	eafffff9 	b	ae10 <printf+0x48>

0000ae28 <sprintf>:
    ae28:	e92d000e 	push	{r1, r2, r3}
    ae2c:	e30e2f30 	movw	r2, #61232	; 0xef30
    ae30:	e3402000 	movt	r2, #0
    ae34:	e92d4030 	push	{r4, r5, lr}
    ae38:	e30e3ee0 	movw	r3, #61152	; 0xeee0
    ae3c:	e3403000 	movt	r3, #0
    ae40:	e24dd008 	sub	sp, sp, #8
    ae44:	e1a04000 	mov	r4, r0
    ae48:	e28d1018 	add	r1, sp, #24
    ae4c:	e3a05000 	mov	r5, #0
    ae50:	e5825000 	str	r5, [r2]
    ae54:	e28d2004 	add	r2, sp, #4
    ae58:	e58d0004 	str	r0, [sp, #4]
    ae5c:	e3e00102 	mvn	r0, #-2147483648	; 0x80000000
    ae60:	e5830000 	str	r0, [r3]
    ae64:	e59d0014 	ldr	r0, [sp, #20]
    ae68:	e58d1000 	str	r1, [sp]
    ae6c:	ebfffb67 	bl	9c10 <_doprnt.constprop.1>
    ae70:	e59d3004 	ldr	r3, [sp, #4]
    ae74:	e5c35000 	strb	r5, [r3]
    ae78:	e59d0004 	ldr	r0, [sp, #4]
    ae7c:	e0400004 	sub	r0, r0, r4
    ae80:	e28dd008 	add	sp, sp, #8
    ae84:	e8bd4030 	pop	{r4, r5, lr}
    ae88:	e28dd00c 	add	sp, sp, #12
    ae8c:	e12fff1e 	bx	lr

0000ae90 <snprintf>:
    ae90:	e92d000c 	push	{r2, r3}
    ae94:	e30e2f30 	movw	r2, #61232	; 0xef30
    ae98:	e3402000 	movt	r2, #0
    ae9c:	e92d4010 	push	{r4, lr}
    aea0:	e30ecee0 	movw	ip, #61152	; 0xeee0
    aea4:	e340c000 	movt	ip, #0
    aea8:	e24dd008 	sub	sp, sp, #8
    aeac:	e2513000 	subs	r3, r1, #0
    aeb0:	e1a04000 	mov	r4, r0
    aeb4:	e3a01000 	mov	r1, #0
    aeb8:	e5821000 	str	r1, [r2]
    aebc:	e28d1014 	add	r1, sp, #20
    aec0:	e28d2004 	add	r2, sp, #4
    aec4:	e58d0004 	str	r0, [sp, #4]
    aec8:	e59d0010 	ldr	r0, [sp, #16]
    aecc:	12433001 	subne	r3, r3, #1
    aed0:	e58d1000 	str	r1, [sp]
    aed4:	e58c3000 	str	r3, [ip]
    aed8:	ebfffb4c 	bl	9c10 <_doprnt.constprop.1>
    aedc:	e59d3004 	ldr	r3, [sp, #4]
    aee0:	e3a02000 	mov	r2, #0
    aee4:	e5c32000 	strb	r2, [r3]
    aee8:	e59d0004 	ldr	r0, [sp, #4]
    aeec:	e0400004 	sub	r0, r0, r4
    aef0:	e28dd008 	add	sp, sp, #8
    aef4:	e8bd4010 	pop	{r4, lr}
    aef8:	e28dd008 	add	sp, sp, #8
    aefc:	e12fff1e 	bx	lr

0000af00 <vprintf>:
    af00:	e30e3f30 	movw	r3, #61232	; 0xef30
    af04:	e3403000 	movt	r3, #0
    af08:	e5932004 	ldr	r2, [r3, #4]
    af0c:	e3520000 	cmp	r2, #0
    af10:	0a000008 	beq	af38 <vprintf+0x38>
    af14:	e30ecee0 	movw	ip, #61152	; 0xeee0
    af18:	e340c000 	movt	ip, #0
    af1c:	e92d4010 	push	{r4, lr}
    af20:	e3a04000 	mov	r4, #0
    af24:	e3e0e102 	mvn	lr, #-2147483648	; 0x80000000
    af28:	e5834000 	str	r4, [r3]
    af2c:	e58ce000 	str	lr, [ip]
    af30:	e8bd4010 	pop	{r4, lr}
    af34:	eafff911 	b	9380 <_doprnt.constprop.0>
    af38:	e3e00000 	mvn	r0, #0
    af3c:	e12fff1e 	bx	lr

0000af40 <vsprintf>:
    af40:	e92d4030 	push	{r4, r5, lr}
    af44:	e30ecf30 	movw	ip, #61232	; 0xef30
    af48:	e340c000 	movt	ip, #0
    af4c:	e24dd00c 	sub	sp, sp, #12
    af50:	e30e3ee0 	movw	r3, #61152	; 0xeee0
    af54:	e3403000 	movt	r3, #0
    af58:	e1a0e001 	mov	lr, r1
    af5c:	e1a04000 	mov	r4, r0
    af60:	e1a01002 	mov	r1, r2
    af64:	e1a0000e 	mov	r0, lr
    af68:	e28d2004 	add	r2, sp, #4
    af6c:	e3a05000 	mov	r5, #0
    af70:	e58d4004 	str	r4, [sp, #4]
    af74:	e58c5000 	str	r5, [ip]
    af78:	e3e0c102 	mvn	ip, #-2147483648	; 0x80000000
    af7c:	e583c000 	str	ip, [r3]
    af80:	ebfffb22 	bl	9c10 <_doprnt.constprop.1>
    af84:	e59d3004 	ldr	r3, [sp, #4]
    af88:	e5c35000 	strb	r5, [r3]
    af8c:	e59d0004 	ldr	r0, [sp, #4]
    af90:	e0400004 	sub	r0, r0, r4
    af94:	e28dd00c 	add	sp, sp, #12
    af98:	e8bd8030 	pop	{r4, r5, pc}

0000af9c <vsnprintf>:
    af9c:	e92d4010 	push	{r4, lr}
    afa0:	e30eef30 	movw	lr, #61232	; 0xef30
    afa4:	e340e000 	movt	lr, #0
    afa8:	e24dd008 	sub	sp, sp, #8
    afac:	e251c000 	subs	ip, r1, #0
    afb0:	e1a01003 	mov	r1, r3
    afb4:	e3a03000 	mov	r3, #0
    afb8:	e58e3000 	str	r3, [lr]
    afbc:	e30eeee0 	movw	lr, #61152	; 0xeee0
    afc0:	e340e000 	movt	lr, #0
    afc4:	e1a04000 	mov	r4, r0
    afc8:	e58d0004 	str	r0, [sp, #4]
    afcc:	e1a00002 	mov	r0, r2
    afd0:	e28d2004 	add	r2, sp, #4
    afd4:	124cc001 	subne	ip, ip, #1
    afd8:	e58ec000 	str	ip, [lr]
    afdc:	ebfffb0b 	bl	9c10 <_doprnt.constprop.1>
    afe0:	e59d3004 	ldr	r3, [sp, #4]
    afe4:	e3a02000 	mov	r2, #0
    afe8:	e5c32000 	strb	r2, [r3]
    afec:	e59d0004 	ldr	r0, [sp, #4]
    aff0:	e0400004 	sub	r0, r0, r4
    aff4:	e28dd008 	add	sp, sp, #8
    aff8:	e8bd8010 	pop	{r4, pc}

0000affc <kernel_main>:
    affc:	e92d41f0 	push	{r4, r5, r6, r7, r8, lr}
    b000:	e30c0de0 	movw	r0, #52704	; 0xcde0
    b004:	e3400000 	movt	r0, #0
    b008:	ebffff6a 	bl	adb8 <Init_EmbStdio>
    b00c:	e3a02020 	mov	r2, #32
    b010:	e3a01e2d 	mov	r1, #720	; 0x2d0
    b014:	e3a00c05 	mov	r0, #1280	; 0x500
    b018:	e30a3dc8 	movw	r3, #44488	; 0xadc8
    b01c:	e3403000 	movt	r3, #0
    b020:	eb000973 	bl	d5f4 <PiConsole_Init>
    b024:	e30a0dc8 	movw	r0, #44488	; 0xadc8
    b028:	e3400000 	movt	r0, #0
    b02c:	e30e6f38 	movw	r6, #61240	; 0xef38
    b030:	e3406000 	movt	r6, #0
    b034:	eb000741 	bl	cd40 <displaySmartStart>
    b038:	e30a0dc8 	movw	r0, #44488	; 0xadc8
    b03c:	e3400000 	movt	r0, #0
    b040:	eb000712 	bl	cc90 <ARM_setmaxspeed>
    b044:	e3a05000 	mov	r5, #0
    b048:	ebfff527 	bl	84ec <InitV3D>
    b04c:	eb000a31 	bl	d918 <GetConsole_Width>
    b050:	e1a04000 	mov	r4, r0
    b054:	eb000a33 	bl	d928 <GetConsole_Height>
    b058:	e1a01004 	mov	r1, r4
    b05c:	e1a02000 	mov	r2, r0
    b060:	e1a00006 	mov	r0, r6
    b064:	ebfff5a2 	bl	86f4 <V3D_InitializeScene>
    b068:	e1a00006 	mov	r0, r6
    b06c:	e5967000 	ldr	r7, [r6]
    b070:	ebfff61b 	bl	88e4 <V3D_AddVertexesToScene>
    b074:	e3a02012 	mov	r2, #18
    b078:	e1a00006 	mov	r0, r6
    b07c:	e30e1ee4 	movw	r1, #61156	; 0xeee4
    b080:	e3401000 	movt	r1, #0
    b084:	ebfff72c 	bl	8d3c <V3D_AddShadderToScene>
    b088:	e287707f 	add	r7, r7, #127	; 0x7f
    b08c:	eb000a1d 	bl	d908 <GetConsole_FrameBuffer>
    b090:	e1a01000 	mov	r1, r0
    b094:	e1a00006 	mov	r0, r6
    b098:	e3c7707f 	bic	r7, r7, #127	; 0x7f
    b09c:	ebfff76d 	bl	8e58 <V3D_SetupRenderControl>
    b0a0:	e1a00006 	mov	r0, r6
    b0a4:	ebfff7dd 	bl	9020 <V3D_SetupBinningConfig>
    b0a8:	e1a00006 	mov	r0, r6
    b0ac:	ebfff854 	bl	9204 <V3D_RenderScene>
    b0b0:	e30d0d04 	movw	r0, #56580	; 0xdd04
    b0b4:	e3400000 	movt	r0, #0
    b0b8:	e30a4120 	movw	r4, #41248	; 0xa120
    b0bc:	e3404007 	movt	r4, #7
    b0c0:	ebffff40 	bl	adc8 <printf>
    b0c4:	e5961000 	ldr	r1, [r6]
    b0c8:	e30d0d2c 	movw	r0, #56620	; 0xdd2c
    b0cc:	e3400000 	movt	r0, #0
    b0d0:	ebffff3c 	bl	adc8 <printf>
    b0d4:	e1a01007 	mov	r1, r7
    b0d8:	e30d0d64 	movw	r0, #56676	; 0xdd64
    b0dc:	e3400000 	movt	r0, #0
    b0e0:	ebffff38 	bl	adc8 <printf>
    b0e4:	e30d0da0 	movw	r0, #56736	; 0xdda0
    b0e8:	e3400000 	movt	r0, #0
    b0ec:	e5d61058 	ldrb	r1, [r6, #88]	; 0x58
    b0f0:	ebffff34 	bl	adc8 <printf>
    b0f4:	e3a00001 	mov	r0, #1
    b0f8:	eb000673 	bl	cacc <set_Activity_LED>
    b0fc:	e1a01005 	mov	r1, r5
    b100:	e1a00004 	mov	r0, r4
    b104:	eb0005a0 	bl	c78c <timer_wait>
    b108:	e3a00000 	mov	r0, #0
    b10c:	eb00066e 	bl	cacc <set_Activity_LED>
    b110:	e1a00004 	mov	r0, r4
    b114:	e1a01005 	mov	r1, r5
    b118:	eb00059b 	bl	c78c <timer_wait>
    b11c:	eafffff4 	b	b0f4 <kernel_main+0xf8>

0000b120 <ClearArea16>:
    b120:	e92d43f0 	push	{r4, r5, r6, r7, r8, r9, lr}
    b124:	e5908010 	ldr	r8, [r0, #16]
    b128:	e59d701c 	ldr	r7, [sp, #28]
    b12c:	e5905000 	ldr	r5, [r0]
    b130:	e0577002 	subs	r7, r7, r2
    b134:	e5d0402e 	ldrb	r4, [r0, #46]	; 0x2e
    b138:	e0221892 	mla	r2, r2, r8, r1
    b13c:	e5d0e02d 	ldrb	lr, [r0, #45]	; 0x2d
    b140:	e5d0c02c 	ldrb	ip, [r0, #44]	; 0x2c
    b144:	e0852082 	add	r2, r5, r2, lsl #1
    b148:	08bd83f0 	popeq	{r4, r5, r6, r7, r8, r9, pc}
    b14c:	e0536001 	subs	r6, r3, r1
    b150:	e1a08088 	lsl	r8, r8, #1
    b154:	08bd83f0 	popeq	{r4, r5, r6, r7, r8, r9, pc}
    b158:	e1a06086 	lsl	r6, r6, #1
    b15c:	e1a041a4 	lsr	r4, r4, #3
    b160:	e0860002 	add	r0, r6, r2
    b164:	e1a0e12e 	lsr	lr, lr, #2
    b168:	e1a0c1ac 	lsr	ip, ip, #3
    b16c:	e3a05000 	mov	r5, #0
    b170:	e2666000 	rsb	r6, r6, #0
    b174:	e1a01000 	mov	r1, r0
    b178:	e0813006 	add	r3, r1, r6
    b17c:	e5d32000 	ldrb	r2, [r3]
    b180:	e7c4201c 	bfi	r2, ip, #0, #5
    b184:	e4c32002 	strb	r2, [r3], #2
    b188:	e1530001 	cmp	r3, r1
    b18c:	1afffffa 	bne	b17c <ClearArea16+0x5c>
    b190:	e2855001 	add	r5, r5, #1
    b194:	e0831008 	add	r1, r3, r8
    b198:	e1570005 	cmp	r7, r5
    b19c:	1afffff5 	bne	b178 <ClearArea16+0x58>
    b1a0:	e20e5007 	and	r5, lr, #7
    b1a4:	e1a0c000 	mov	ip, r0
    b1a8:	e1a0e1ae 	lsr	lr, lr, #3
    b1ac:	e3a09000 	mov	r9, #0
    b1b0:	e1a05285 	lsl	r5, r5, #5
    b1b4:	e08c3006 	add	r3, ip, r6
    b1b8:	e5d31000 	ldrb	r1, [r3]
    b1bc:	e2833002 	add	r3, r3, #2
    b1c0:	e5532001 	ldrb	r2, [r3, #-1]
    b1c4:	e201101f 	and	r1, r1, #31
    b1c8:	e3c22007 	bic	r2, r2, #7
    b1cc:	e1811005 	orr	r1, r1, r5
    b1d0:	e182200e 	orr	r2, r2, lr
    b1d4:	e5431002 	strb	r1, [r3, #-2]
    b1d8:	e5432001 	strb	r2, [r3, #-1]
    b1dc:	e153000c 	cmp	r3, ip
    b1e0:	1afffff4 	bne	b1b8 <ClearArea16+0x98>
    b1e4:	e2899001 	add	r9, r9, #1
    b1e8:	e083c008 	add	ip, r3, r8
    b1ec:	e1570009 	cmp	r7, r9
    b1f0:	1affffef 	bne	b1b4 <ClearArea16+0x94>
    b1f4:	e3a01000 	mov	r1, #0
    b1f8:	e0803006 	add	r3, r0, r6
    b1fc:	e5d32001 	ldrb	r2, [r3, #1]
    b200:	e2833002 	add	r3, r3, #2
    b204:	e7c72194 	bfi	r2, r4, #3, #5
    b208:	e5432001 	strb	r2, [r3, #-1]
    b20c:	e1530000 	cmp	r3, r0
    b210:	1afffff9 	bne	b1fc <ClearArea16+0xdc>
    b214:	e2811001 	add	r1, r1, #1
    b218:	e0800008 	add	r0, r0, r8
    b21c:	e1510007 	cmp	r1, r7
    b220:	1afffff4 	bne	b1f8 <ClearArea16+0xd8>
    b224:	e8bd83f0 	pop	{r4, r5, r6, r7, r8, r9, pc}

0000b228 <VertLine16>:
    b228:	e92d4ff0 	push	{r4, r5, r6, r7, r8, r9, sl, fp, lr}
    b22c:	e3510000 	cmp	r1, #0
    b230:	e590e010 	ldr	lr, [r0, #16]
    b234:	e24dd00c 	sub	sp, sp, #12
    b238:	e5903000 	ldr	r3, [r0]
    b23c:	e590b018 	ldr	fp, [r0, #24]
    b240:	e1a0c08e 	lsl	ip, lr, #1
    b244:	e5d08026 	ldrb	r8, [r0, #38]	; 0x26
    b248:	e58d2004 	str	r2, [sp, #4]
    b24c:	e5902014 	ldr	r2, [r0, #20]
    b250:	e5d06025 	ldrb	r6, [r0, #37]	; 0x25
    b254:	e5d04024 	ldrb	r4, [r0, #36]	; 0x24
    b258:	e0833082 	add	r3, r3, r2, lsl #1
    b25c:	e0233b9c 	mla	r3, ip, fp, r3
    b260:	0a000029 	beq	b30c <VertLine16+0xe4>
    b264:	e1a021a4 	lsr	r2, r4, #3
    b268:	e59d4004 	ldr	r4, [sp, #4]
    b26c:	e1a081a8 	lsr	r8, r8, #3
    b270:	e1a06126 	lsr	r6, r6, #2
    b274:	e3540001 	cmp	r4, #1
    b278:	e26c7000 	rsb	r7, ip, #0
    b27c:	0a000027 	beq	b320 <VertLine16+0xf8>
    b280:	e1a0e003 	mov	lr, r3
    b284:	e3a0c000 	mov	ip, #0
    b288:	e5de5000 	ldrb	r5, [lr]
    b28c:	e1a0400c 	mov	r4, ip
    b290:	e28cc001 	add	ip, ip, #1
    b294:	e151000c 	cmp	r1, ip
    b298:	e7c45012 	bfi	r5, r2, #0, #5
    b29c:	e6ce5007 	strb	r5, [lr], r7
    b2a0:	1afffff8 	bne	b288 <VertLine16+0x60>
    b2a4:	e206a007 	and	sl, r6, #7
    b2a8:	e1a02003 	mov	r2, r3
    b2ac:	e1a061a6 	lsr	r6, r6, #3
    b2b0:	e3a05000 	mov	r5, #0
    b2b4:	e1a0a28a 	lsl	sl, sl, #5
    b2b8:	e5d2e000 	ldrb	lr, [r2]
    b2bc:	e1540005 	cmp	r4, r5
    b2c0:	e5d2c001 	ldrb	ip, [r2, #1]
    b2c4:	e2855001 	add	r5, r5, #1
    b2c8:	e20ee01f 	and	lr, lr, #31
    b2cc:	e3ccc007 	bic	ip, ip, #7
    b2d0:	e18ee00a 	orr	lr, lr, sl
    b2d4:	e18cc006 	orr	ip, ip, r6
    b2d8:	e5c2e000 	strb	lr, [r2]
    b2dc:	e5c2c001 	strb	ip, [r2, #1]
    b2e0:	e0822007 	add	r2, r2, r7
    b2e4:	1afffff3 	bne	b2b8 <VertLine16+0x90>
    b2e8:	e3a02000 	mov	r2, #0
    b2ec:	e5d3c001 	ldrb	ip, [r3, #1]
    b2f0:	e1a0e002 	mov	lr, r2
    b2f4:	e1520004 	cmp	r2, r4
    b2f8:	e2822001 	add	r2, r2, #1
    b2fc:	e7c7c198 	bfi	ip, r8, #3, #5
    b300:	e5c3c001 	strb	ip, [r3, #1]
    b304:	e0833007 	add	r3, r3, r7
    b308:	1afffff7 	bne	b2ec <VertLine16+0xc4>
    b30c:	e59d3004 	ldr	r3, [sp, #4]
    b310:	e021b391 	mla	r1, r1, r3, fp
    b314:	e5801018 	str	r1, [r0, #24]
    b318:	e28dd00c 	add	sp, sp, #12
    b31c:	e8bd8ff0 	pop	{r4, r5, r6, r7, r8, r9, sl, fp, pc}
    b320:	e35e0001 	cmp	lr, #1
    b324:	01a0e003 	moveq	lr, r3
    b328:	03a0c000 	moveq	ip, #0
    b32c:	1a000021 	bne	b3b8 <VertLine16+0x190>
    b330:	e5de5000 	ldrb	r5, [lr]
    b334:	e1a0400c 	mov	r4, ip
    b338:	e28cc001 	add	ip, ip, #1
    b33c:	e151000c 	cmp	r1, ip
    b340:	e7c45012 	bfi	r5, r2, #0, #5
    b344:	e4ce5002 	strb	r5, [lr], #2
    b348:	1afffff8 	bne	b330 <VertLine16+0x108>
    b34c:	e206a007 	and	sl, r6, #7
    b350:	e1a0c003 	mov	ip, r3
    b354:	e1a061a6 	lsr	r6, r6, #3
    b358:	e3a05000 	mov	r5, #0
    b35c:	e1a0a28a 	lsl	sl, sl, #5
    b360:	e5dce000 	ldrb	lr, [ip]
    b364:	e1540005 	cmp	r4, r5
    b368:	e5dc2001 	ldrb	r2, [ip, #1]
    b36c:	e2855001 	add	r5, r5, #1
    b370:	e20ee01f 	and	lr, lr, #31
    b374:	e28cc002 	add	ip, ip, #2
    b378:	e3c22007 	bic	r2, r2, #7
    b37c:	e18ee00a 	orr	lr, lr, sl
    b380:	e1822006 	orr	r2, r2, r6
    b384:	e54ce002 	strb	lr, [ip, #-2]
    b388:	e54c2001 	strb	r2, [ip, #-1]
    b38c:	1afffff3 	bne	b360 <VertLine16+0x138>
    b390:	e3a02000 	mov	r2, #0
    b394:	e5d3c001 	ldrb	ip, [r3, #1]
    b398:	e1a0e002 	mov	lr, r2
    b39c:	e1520004 	cmp	r2, r4
    b3a0:	e2833002 	add	r3, r3, #2
    b3a4:	e2822001 	add	r2, r2, #1
    b3a8:	e7c7c198 	bfi	ip, r8, #3, #5
    b3ac:	e543c001 	strb	ip, [r3, #-1]
    b3b0:	1afffff7 	bne	b394 <VertLine16+0x16c>
    b3b4:	eaffffd4 	b	b30c <VertLine16+0xe4>
    b3b8:	e1a04003 	mov	r4, r3
    b3bc:	e3a0e000 	mov	lr, #0
    b3c0:	e5d45000 	ldrb	r5, [r4]
    b3c4:	e1a0700e 	mov	r7, lr
    b3c8:	e28ee001 	add	lr, lr, #1
    b3cc:	e151000e 	cmp	r1, lr
    b3d0:	e7c45012 	bfi	r5, r2, #0, #5
    b3d4:	e6c4500c 	strb	r5, [r4], ip
    b3d8:	1afffff8 	bne	b3c0 <VertLine16+0x198>
    b3dc:	e206a007 	and	sl, r6, #7
    b3e0:	e1a021a6 	lsr	r2, r6, #3
    b3e4:	e1a0e003 	mov	lr, r3
    b3e8:	e3a06000 	mov	r6, #0
    b3ec:	e1a0a28a 	lsl	sl, sl, #5
    b3f0:	e5de5000 	ldrb	r5, [lr]
    b3f4:	e1570006 	cmp	r7, r6
    b3f8:	e5de4001 	ldrb	r4, [lr, #1]
    b3fc:	e2866001 	add	r6, r6, #1
    b400:	e205501f 	and	r5, r5, #31
    b404:	e3c44007 	bic	r4, r4, #7
    b408:	e185500a 	orr	r5, r5, sl
    b40c:	e1844002 	orr	r4, r4, r2
    b410:	e5ce5000 	strb	r5, [lr]
    b414:	e5ce4001 	strb	r4, [lr, #1]
    b418:	e08ee00c 	add	lr, lr, ip
    b41c:	1afffff3 	bne	b3f0 <VertLine16+0x1c8>
    b420:	e3a02000 	mov	r2, #0
    b424:	e5d3e001 	ldrb	lr, [r3, #1]
    b428:	e1520007 	cmp	r2, r7
    b42c:	e2822001 	add	r2, r2, #1
    b430:	e7c7e198 	bfi	lr, r8, #3, #5
    b434:	e5c3e001 	strb	lr, [r3, #1]
    b438:	e083300c 	add	r3, r3, ip
    b43c:	1afffff8 	bne	b424 <VertLine16+0x1fc>
    b440:	eaffffb1 	b	b30c <VertLine16+0xe4>

0000b444 <HorzLine16>:
    b444:	e92d4ff0 	push	{r4, r5, r6, r7, r8, r9, sl, fp, lr}
    b448:	e3510000 	cmp	r1, #0
    b44c:	e5903014 	ldr	r3, [r0, #20]
    b450:	e24dd00c 	sub	sp, sp, #12
    b454:	e590c010 	ldr	ip, [r0, #16]
    b458:	e1a0e003 	mov	lr, r3
    b45c:	e5904000 	ldr	r4, [r0]
    b460:	e5d0a026 	ldrb	sl, [r0, #38]	; 0x26
    b464:	e58d3004 	str	r3, [sp, #4]
    b468:	e5903018 	ldr	r3, [r0, #24]
    b46c:	e5d08025 	ldrb	r8, [r0, #37]	; 0x25
    b470:	e5d06024 	ldrb	r6, [r0, #36]	; 0x24
    b474:	e023e39c 	mla	r3, ip, r3, lr
    b478:	e0844083 	add	r4, r4, r3, lsl #1
    b47c:	0a000028 	beq	b524 <HorzLine16+0xe0>
    b480:	e1a0a1aa 	lsr	sl, sl, #3
    b484:	e1a08128 	lsr	r8, r8, #2
    b488:	e1a061a6 	lsr	r6, r6, #3
    b48c:	e1a0c004 	mov	ip, r4
    b490:	e3a03000 	mov	r3, #0
    b494:	e3520001 	cmp	r2, #1
    b498:	e1a07082 	lsl	r7, r2, #1
    b49c:	1a000025 	bne	b538 <HorzLine16+0xf4>
    b4a0:	e5dce000 	ldrb	lr, [ip]
    b4a4:	e1a05003 	mov	r5, r3
    b4a8:	e2833001 	add	r3, r3, #1
    b4ac:	e1510003 	cmp	r1, r3
    b4b0:	e7c4e016 	bfi	lr, r6, #0, #5
    b4b4:	e6cce007 	strb	lr, [ip], r7
    b4b8:	1afffff8 	bne	b4a0 <HorzLine16+0x5c>
    b4bc:	e208b007 	and	fp, r8, #7
    b4c0:	e1a03004 	mov	r3, r4
    b4c4:	e1a081a8 	lsr	r8, r8, #3
    b4c8:	e3a06000 	mov	r6, #0
    b4cc:	e1a0b28b 	lsl	fp, fp, #5
    b4d0:	e5d3e000 	ldrb	lr, [r3]
    b4d4:	e1550006 	cmp	r5, r6
    b4d8:	e5d3c001 	ldrb	ip, [r3, #1]
    b4dc:	e2866001 	add	r6, r6, #1
    b4e0:	e20ee01f 	and	lr, lr, #31
    b4e4:	e3ccc007 	bic	ip, ip, #7
    b4e8:	e18ee00b 	orr	lr, lr, fp
    b4ec:	e18cc008 	orr	ip, ip, r8
    b4f0:	e5c3e000 	strb	lr, [r3]
    b4f4:	e5c3c001 	strb	ip, [r3, #1]
    b4f8:	e0833007 	add	r3, r3, r7
    b4fc:	1afffff3 	bne	b4d0 <HorzLine16+0x8c>
    b500:	e3a03000 	mov	r3, #0
    b504:	e5d4c001 	ldrb	ip, [r4, #1]
    b508:	e1a0e003 	mov	lr, r3
    b50c:	e1530005 	cmp	r3, r5
    b510:	e2833001 	add	r3, r3, #1
    b514:	e7c7c19a 	bfi	ip, sl, #3, #5
    b518:	e5c4c001 	strb	ip, [r4, #1]
    b51c:	e0844007 	add	r4, r4, r7
    b520:	1afffff7 	bne	b504 <HorzLine16+0xc0>
    b524:	e59d3004 	ldr	r3, [sp, #4]
    b528:	e0213291 	mla	r1, r1, r2, r3
    b52c:	e5801014 	str	r1, [r0, #20]
    b530:	e28dd00c 	add	sp, sp, #12
    b534:	e8bd8ff0 	pop	{r4, r5, r6, r7, r8, r9, sl, fp, pc}
    b538:	e5dce000 	ldrb	lr, [ip]
    b53c:	e1a05003 	mov	r5, r3
    b540:	e2833001 	add	r3, r3, #1
    b544:	e1510003 	cmp	r1, r3
    b548:	e7c4e016 	bfi	lr, r6, #0, #5
    b54c:	e6cce007 	strb	lr, [ip], r7
    b550:	1afffff8 	bne	b538 <HorzLine16+0xf4>
    b554:	e208b007 	and	fp, r8, #7
    b558:	e1a03004 	mov	r3, r4
    b55c:	e1a081a8 	lsr	r8, r8, #3
    b560:	e3a06000 	mov	r6, #0
    b564:	e1a0b28b 	lsl	fp, fp, #5
    b568:	e5d3e000 	ldrb	lr, [r3]
    b56c:	e1550006 	cmp	r5, r6
    b570:	e5d3c001 	ldrb	ip, [r3, #1]
    b574:	e2866001 	add	r6, r6, #1
    b578:	e20ee01f 	and	lr, lr, #31
    b57c:	e3ccc007 	bic	ip, ip, #7
    b580:	e18ee00b 	orr	lr, lr, fp
    b584:	e18cc008 	orr	ip, ip, r8
    b588:	e5c3e000 	strb	lr, [r3]
    b58c:	e5c3c001 	strb	ip, [r3, #1]
    b590:	e0833007 	add	r3, r3, r7
    b594:	1afffff3 	bne	b568 <HorzLine16+0x124>
    b598:	e3a03000 	mov	r3, #0
    b59c:	e5d4c001 	ldrb	ip, [r4, #1]
    b5a0:	e1a0e003 	mov	lr, r3
    b5a4:	e1530005 	cmp	r3, r5
    b5a8:	e2833001 	add	r3, r3, #1
    b5ac:	e7c7c19a 	bfi	ip, sl, #3, #5
    b5b0:	e5c4c001 	strb	ip, [r4, #1]
    b5b4:	e0844007 	add	r4, r4, r7
    b5b8:	1afffff7 	bne	b59c <HorzLine16+0x158>
    b5bc:	eaffffd8 	b	b524 <HorzLine16+0xe0>

0000b5c0 <DiagLine16>:
    b5c0:	e92d4ff0 	push	{r4, r5, r6, r7, r8, r9, sl, fp, lr}
    b5c4:	e1510002 	cmp	r1, r2
    b5c8:	e590a018 	ldr	sl, [r0, #24]
    b5cc:	e5908010 	ldr	r8, [r0, #16]
    b5d0:	31a02001 	movcc	r2, r1
    b5d4:	e590b014 	ldr	fp, [r0, #20]
    b5d8:	e3510000 	cmp	r1, #0
    b5dc:	e590c000 	ldr	ip, [r0]
    b5e0:	e5d06026 	ldrb	r6, [r0, #38]	; 0x26
    b5e4:	e0040a98 	mul	r4, r8, sl
    b5e8:	e5d0e025 	ldrb	lr, [r0, #37]	; 0x25
    b5ec:	e08cc08b 	add	ip, ip, fp, lsl #1
    b5f0:	e5d05024 	ldrb	r5, [r0, #36]	; 0x24
    b5f4:	e59d9024 	ldr	r9, [sp, #36]	; 0x24
    b5f8:	e08cc084 	add	ip, ip, r4, lsl #1
    b5fc:	0a000014 	beq	b654 <DiagLine16+0x94>
    b600:	e1a0e12e 	lsr	lr, lr, #2
    b604:	e0080998 	mul	r8, r8, r9
    b608:	e1a061a6 	lsr	r6, r6, #3
    b60c:	e1a051a5 	lsr	r5, r5, #3
    b610:	e1a071ae 	lsr	r7, lr, #3
    b614:	e3a04000 	mov	r4, #0
    b618:	e185528e 	orr	r5, r5, lr, lsl #5
    b61c:	e1876186 	orr	r6, r7, r6, lsl #3
    b620:	e1a0e004 	mov	lr, r4
    b624:	e1a08088 	lsl	r8, r8, #1
    b628:	e1a07083 	lsl	r7, r3, #1
    b62c:	e08ee002 	add	lr, lr, r2
    b630:	e2844001 	add	r4, r4, #1
    b634:	e151000e 	cmp	r1, lr
    b638:	e5cc5000 	strb	r5, [ip]
    b63c:	e5cc6001 	strb	r6, [ip, #1]
    b640:	e08cc007 	add	ip, ip, r7
    b644:	904ee001 	subls	lr, lr, r1
    b648:	908cc008 	addls	ip, ip, r8
    b64c:	e1510004 	cmp	r1, r4
    b650:	1afffff5 	bne	b62c <DiagLine16+0x6c>
    b654:	e021b391 	mla	r1, r1, r3, fp
    b658:	e022a992 	mla	r2, r2, r9, sl
    b65c:	e5801014 	str	r1, [r0, #20]
    b660:	e5802018 	str	r2, [r0, #24]
    b664:	e8bd8ff0 	pop	{r4, r5, r6, r7, r8, r9, sl, fp, pc}

0000b668 <WriteChar16>:
    b668:	e92d4ff0 	push	{r4, r5, r6, r7, r8, r9, sl, fp, lr}
    b66c:	e1a03201 	lsl	r3, r1, #4
    b670:	e30d2eb0 	movw	r2, #57008	; 0xdeb0
    b674:	e3402000 	movt	r2, #0
    b678:	e24dd01c 	sub	sp, sp, #28
    b67c:	e2821010 	add	r1, r2, #16
    b680:	e0832002 	add	r2, r3, r2
    b684:	e0813003 	add	r3, r1, r3
    b688:	e58d2008 	str	r2, [sp, #8]
    b68c:	e1a02000 	mov	r2, r0
    b690:	e1a01002 	mov	r1, r2
    b694:	e58d0014 	str	r0, [sp, #20]
    b698:	e58d300c 	str	r3, [sp, #12]
    b69c:	e5900014 	ldr	r0, [r0, #20]
    b6a0:	e5923000 	ldr	r3, [r2]
    b6a4:	e5922010 	ldr	r2, [r2, #16]
    b6a8:	e5914018 	ldr	r4, [r1, #24]
    b6ac:	e5d1b026 	ldrb	fp, [r1, #38]	; 0x26
    b6b0:	e0833080 	add	r3, r3, r0, lsl #1
    b6b4:	e5d1a025 	ldrb	sl, [r1, #37]	; 0x25
    b6b8:	e5d1902a 	ldrb	r9, [r1, #42]	; 0x2a
    b6bc:	e5d18029 	ldrb	r8, [r1, #41]	; 0x29
    b6c0:	e1a0b1ab 	lsr	fp, fp, #3
    b6c4:	e5d17028 	ldrb	r7, [r1, #40]	; 0x28
    b6c8:	e1a0a12a 	lsr	sl, sl, #2
    b6cc:	e58d0010 	str	r0, [sp, #16]
    b6d0:	e1a00082 	lsl	r0, r2, #1
    b6d4:	e5d12024 	ldrb	r2, [r1, #36]	; 0x24
    b6d8:	e1a091a9 	lsr	r9, r9, #3
    b6dc:	e1a08128 	lsr	r8, r8, #2
    b6e0:	e1a071a7 	lsr	r7, r7, #3
    b6e4:	e0243094 	mla	r4, r4, r0, r3
    b6e8:	e58d0004 	str	r0, [sp, #4]
    b6ec:	e1a031a2 	lsr	r3, r2, #3
    b6f0:	e58d3000 	str	r3, [sp]
    b6f4:	e59d3008 	ldr	r3, [sp, #8]
    b6f8:	e3a02000 	mov	r2, #0
    b6fc:	e493e004 	ldr	lr, [r3], #4
    b700:	e58d3008 	str	r3, [sp, #8]
    b704:	e35e0000 	cmp	lr, #0
    b708:	e2020007 	and	r0, r2, #7
    b70c:	e1a0c008 	mov	ip, r8
    b710:	e1a05009 	mov	r5, r9
    b714:	b1a0c00a 	movlt	ip, sl
    b718:	e1a03007 	mov	r3, r7
    b71c:	b1a0500b 	movlt	r5, fp
    b720:	b59d3000 	ldrlt	r3, [sp]
    b724:	e3500007 	cmp	r0, #7
    b728:	e0846080 	add	r6, r4, r0, lsl #1
    b72c:	e1a011ac 	lsr	r1, ip, #3
    b730:	e2822001 	add	r2, r2, #1
    b734:	e183328c 	orr	r3, r3, ip, lsl #5
    b738:	e7c43080 	strb	r3, [r4, r0, lsl #1]
    b73c:	059d3004 	ldreq	r3, [sp, #4]
    b740:	e1811185 	orr	r1, r1, r5, lsl #3
    b744:	e1a0e08e 	lsl	lr, lr, #1
    b748:	e5c61001 	strb	r1, [r6, #1]
    b74c:	00844003 	addeq	r4, r4, r3
    b750:	e3520020 	cmp	r2, #32
    b754:	1affffea 	bne	b704 <WriteChar16+0x9c>
    b758:	e59d3008 	ldr	r3, [sp, #8]
    b75c:	e59d200c 	ldr	r2, [sp, #12]
    b760:	e1530002 	cmp	r3, r2
    b764:	1affffe2 	bne	b6f4 <WriteChar16+0x8c>
    b768:	e59d2014 	ldr	r2, [sp, #20]
    b76c:	e59d3010 	ldr	r3, [sp, #16]
    b770:	e2833008 	add	r3, r3, #8
    b774:	e5823014 	str	r3, [r2, #20]
    b778:	e28dd01c 	add	sp, sp, #28
    b77c:	e8bd8ff0 	pop	{r4, r5, r6, r7, r8, r9, sl, fp, pc}

0000b780 <TransparentWriteChar16>:
    b780:	e92d43f0 	push	{r4, r5, r6, r7, r8, r9, lr}
    b784:	e30d6eb0 	movw	r6, #57008	; 0xdeb0
    b788:	e3406000 	movt	r6, #0
    b78c:	e1a03201 	lsl	r3, r1, #4
    b790:	e2867010 	add	r7, r6, #16
    b794:	e5908014 	ldr	r8, [r0, #20]
    b798:	e0836006 	add	r6, r3, r6
    b79c:	e5902000 	ldr	r2, [r0]
    b7a0:	e0877003 	add	r7, r7, r3
    b7a4:	e5905010 	ldr	r5, [r0, #16]
    b7a8:	e5d03025 	ldrb	r3, [r0, #37]	; 0x25
    b7ac:	e590e018 	ldr	lr, [r0, #24]
    b7b0:	e0822088 	add	r2, r2, r8, lsl #1
    b7b4:	e1a05085 	lsl	r5, r5, #1
    b7b8:	e5d01024 	ldrb	r1, [r0, #36]	; 0x24
    b7bc:	e1a03123 	lsr	r3, r3, #2
    b7c0:	e5d04026 	ldrb	r4, [r0, #38]	; 0x26
    b7c4:	e1a09283 	lsl	r9, r3, #5
    b7c8:	e20440f8 	and	r4, r4, #248	; 0xf8
    b7cc:	e02e259e 	mla	lr, lr, r5, r2
    b7d0:	e18991a1 	orr	r9, r9, r1, lsr #3
    b7d4:	e18441a3 	orr	r4, r4, r3, lsr #3
    b7d8:	e4962004 	ldr	r2, [r6], #4
    b7dc:	e3a03000 	mov	r3, #0
    b7e0:	e2031007 	and	r1, r3, #7
    b7e4:	e3520000 	cmp	r2, #0
    b7e8:	e2833001 	add	r3, r3, #1
    b7ec:	e1a02082 	lsl	r2, r2, #1
    b7f0:	b08ec081 	addlt	ip, lr, r1, lsl #1
    b7f4:	b7ce9081 	strblt	r9, [lr, r1, lsl #1]
    b7f8:	b5cc4001 	strblt	r4, [ip, #1]
    b7fc:	e3510007 	cmp	r1, #7
    b800:	008ee005 	addeq	lr, lr, r5
    b804:	e3530020 	cmp	r3, #32
    b808:	1afffff4 	bne	b7e0 <TransparentWriteChar16+0x60>
    b80c:	e1560007 	cmp	r6, r7
    b810:	1afffff0 	bne	b7d8 <TransparentWriteChar16+0x58>
    b814:	e2888008 	add	r8, r8, #8
    b818:	e5808014 	str	r8, [r0, #20]
    b81c:	e8bd83f0 	pop	{r4, r5, r6, r7, r8, r9, pc}

0000b820 <PutImage16>:
    b820:	e92d4ff0 	push	{r4, r5, r6, r7, r8, r9, sl, fp, lr}
    b824:	e1a06001 	mov	r6, r1
    b828:	e5909010 	ldr	r9, [r0, #16]
    b82c:	e5901014 	ldr	r1, [r0, #20]
    b830:	e2528000 	subs	r8, r2, #0
    b834:	e5902000 	ldr	r2, [r0]
    b838:	e24dd00c 	sub	sp, sp, #12
    b83c:	e5905018 	ldr	r5, [r0, #24]
    b840:	e1a00089 	lsl	r0, r9, #1
    b844:	e0822081 	add	r2, r2, r1, lsl #1
    b848:	e5dda030 	ldrb	sl, [sp, #48]	; 0x30
    b84c:	e58d0000 	str	r0, [sp]
    b850:	e0252095 	mla	r5, r5, r0, r2
    b854:	0a000017 	beq	b8b8 <PutImage16+0x98>
    b858:	e2602000 	rsb	r2, r0, #0
    b85c:	e3560000 	cmp	r6, #0
    b860:	e58d2004 	str	r2, [sp, #4]
    b864:	0a000013 	beq	b8b8 <PutImage16+0x98>
    b868:	e1a04003 	mov	r4, r3
    b86c:	e1a0b086 	lsl	fp, r6, #1
    b870:	e3a07000 	mov	r7, #0
    b874:	e3a09000 	mov	r9, #0
    b878:	e1a00089 	lsl	r0, r9, #1
    b87c:	e3a02002 	mov	r2, #2
    b880:	e0841000 	add	r1, r4, r0
    b884:	e2899001 	add	r9, r9, #1
    b888:	e0850000 	add	r0, r5, r0
    b88c:	fa000844 	blx	d9a4 <memcpy>
    b890:	e1560009 	cmp	r6, r9
    b894:	1afffff7 	bne	b878 <PutImage16+0x58>
    b898:	e35a0000 	cmp	sl, #0
    b89c:	e2877001 	add	r7, r7, #1
    b8a0:	e084400b 	add	r4, r4, fp
    b8a4:	159d3004 	ldrne	r3, [sp, #4]
    b8a8:	059d3000 	ldreq	r3, [sp]
    b8ac:	e1580007 	cmp	r8, r7
    b8b0:	e0855003 	add	r5, r5, r3
    b8b4:	1affffee 	bne	b874 <PutImage16+0x54>
    b8b8:	e28dd00c 	add	sp, sp, #12
    b8bc:	e8bd8ff0 	pop	{r4, r5, r6, r7, r8, r9, sl, fp, pc}

0000b8c0 <ClearArea24>:
    b8c0:	e92d47f0 	push	{r4, r5, r6, r7, r8, r9, sl, lr}
    b8c4:	e5907010 	ldr	r7, [r0, #16]
    b8c8:	e59d8020 	ldr	r8, [sp, #32]
    b8cc:	e5906000 	ldr	r6, [r0]
    b8d0:	e0588002 	subs	r8, r8, r2
    b8d4:	e0221792 	mla	r2, r2, r7, r1
    b8d8:	e0822082 	add	r2, r2, r2, lsl #1
    b8dc:	e0826006 	add	r6, r2, r6
    b8e0:	08bd87f0 	popeq	{r4, r5, r6, r7, r8, r9, sl, pc}
    b8e4:	e0533001 	subs	r3, r3, r1
    b8e8:	e0877087 	add	r7, r7, r7, lsl #1
    b8ec:	08bd87f0 	popeq	{r4, r5, r6, r7, r8, r9, sl, pc}
    b8f0:	e0833083 	add	r3, r3, r3, lsl #1
    b8f4:	e280902c 	add	r9, r0, #44	; 0x2c
    b8f8:	e0835006 	add	r5, r3, r6
    b8fc:	e3a0a000 	mov	sl, #0
    b900:	e1a04006 	mov	r4, r6
    b904:	e3a02003 	mov	r2, #3
    b908:	e1a00004 	mov	r0, r4
    b90c:	e1a01009 	mov	r1, r9
    b910:	e0844002 	add	r4, r4, r2
    b914:	fa000822 	blx	d9a4 <memcpy>
    b918:	e1550004 	cmp	r5, r4
    b91c:	1afffff8 	bne	b904 <ClearArea24+0x44>
    b920:	e28aa001 	add	sl, sl, #1
    b924:	e0866007 	add	r6, r6, r7
    b928:	e15a0008 	cmp	sl, r8
    b92c:	e0855007 	add	r5, r5, r7
    b930:	1afffff2 	bne	b900 <ClearArea24+0x40>
    b934:	e8bd87f0 	pop	{r4, r5, r6, r7, r8, r9, sl, pc}

0000b938 <VertLine24>:
    b938:	e5903014 	ldr	r3, [r0, #20]
    b93c:	e92d47f0 	push	{r4, r5, r6, r7, r8, r9, sl, lr}
    b940:	e1a08002 	mov	r8, r2
    b944:	e5902010 	ldr	r2, [r0, #16]
    b948:	e2516000 	subs	r6, r1, #0
    b94c:	e5901000 	ldr	r1, [r0]
    b950:	e5909018 	ldr	r9, [r0, #24]
    b954:	e0833083 	add	r3, r3, r3, lsl #1
    b958:	e0833001 	add	r3, r3, r1
    b95c:	e0824082 	add	r4, r2, r2, lsl #1
    b960:	e1a07000 	mov	r7, r0
    b964:	e0233994 	mla	r3, r4, r9, r3
    b968:	0a00000c 	beq	b9a0 <VertLine24+0x68>
    b96c:	e3580001 	cmp	r8, #1
    b970:	e264a000 	rsb	sl, r4, #0
    b974:	0a00000c 	beq	b9ac <VertLine24+0x74>
    b978:	e3a04000 	mov	r4, #0
    b97c:	e2805024 	add	r5, r0, #36	; 0x24
    b980:	e1a00003 	mov	r0, r3
    b984:	e2844001 	add	r4, r4, #1
    b988:	e3a02003 	mov	r2, #3
    b98c:	e1a01005 	mov	r1, r5
    b990:	fa000803 	blx	d9a4 <memcpy>
    b994:	e1560004 	cmp	r6, r4
    b998:	e080300a 	add	r3, r0, sl
    b99c:	1afffff7 	bne	b980 <VertLine24+0x48>
    b9a0:	e0269896 	mla	r6, r6, r8, r9
    b9a4:	e5876018 	str	r6, [r7, #24]
    b9a8:	e8bd87f0 	pop	{r4, r5, r6, r7, r8, r9, sl, pc}
    b9ac:	e3520001 	cmp	r2, #1
    b9b0:	03a04000 	moveq	r4, #0
    b9b4:	02805024 	addeq	r5, r0, #36	; 0x24
    b9b8:	1a000008 	bne	b9e0 <VertLine24+0xa8>
    b9bc:	e1a00003 	mov	r0, r3
    b9c0:	e2844001 	add	r4, r4, #1
    b9c4:	e3a02003 	mov	r2, #3
    b9c8:	e1a01005 	mov	r1, r5
    b9cc:	fa0007f4 	blx	d9a4 <memcpy>
    b9d0:	e1560004 	cmp	r6, r4
    b9d4:	e2803003 	add	r3, r0, #3
    b9d8:	1afffff7 	bne	b9bc <VertLine24+0x84>
    b9dc:	eaffffef 	b	b9a0 <VertLine24+0x68>
    b9e0:	e3a0a000 	mov	sl, #0
    b9e4:	e2805024 	add	r5, r0, #36	; 0x24
    b9e8:	e1a00003 	mov	r0, r3
    b9ec:	e28aa001 	add	sl, sl, #1
    b9f0:	e3a02003 	mov	r2, #3
    b9f4:	e1a01005 	mov	r1, r5
    b9f8:	fa0007e9 	blx	d9a4 <memcpy>
    b9fc:	e156000a 	cmp	r6, sl
    ba00:	e0803004 	add	r3, r0, r4
    ba04:	1afffff7 	bne	b9e8 <VertLine24+0xb0>
    ba08:	eaffffe4 	b	b9a0 <VertLine24+0x68>

0000ba0c <HorzLine24>:
    ba0c:	e92d47f0 	push	{r4, r5, r6, r7, r8, r9, sl, lr}
    ba10:	e1a06002 	mov	r6, r2
    ba14:	e5903010 	ldr	r3, [r0, #16]
    ba18:	e5902018 	ldr	r2, [r0, #24]
    ba1c:	e2514000 	subs	r4, r1, #0
    ba20:	e5907014 	ldr	r7, [r0, #20]
    ba24:	e1a05000 	mov	r5, r0
    ba28:	e5901000 	ldr	r1, [r0]
    ba2c:	e0030293 	mul	r3, r3, r2
    ba30:	e0872087 	add	r2, r7, r7, lsl #1
    ba34:	e0822001 	add	r2, r2, r1
    ba38:	e0833083 	add	r3, r3, r3, lsl #1
    ba3c:	e0833002 	add	r3, r3, r2
    ba40:	0a00000c 	beq	ba78 <HorzLine24+0x6c>
    ba44:	e3a08000 	mov	r8, #0
    ba48:	e2809024 	add	r9, r0, #36	; 0x24
    ba4c:	e3560001 	cmp	r6, #1
    ba50:	e086a086 	add	sl, r6, r6, lsl #1
    ba54:	1a00000a 	bne	ba84 <HorzLine24+0x78>
    ba58:	e1a00003 	mov	r0, r3
    ba5c:	e2888001 	add	r8, r8, #1
    ba60:	e3a02003 	mov	r2, #3
    ba64:	e1a01009 	mov	r1, r9
    ba68:	fa0007cd 	blx	d9a4 <memcpy>
    ba6c:	e1580004 	cmp	r8, r4
    ba70:	e080300a 	add	r3, r0, sl
    ba74:	1afffff7 	bne	ba58 <HorzLine24+0x4c>
    ba78:	e0247694 	mla	r4, r4, r6, r7
    ba7c:	e5854014 	str	r4, [r5, #20]
    ba80:	e8bd87f0 	pop	{r4, r5, r6, r7, r8, r9, sl, pc}
    ba84:	e1a00003 	mov	r0, r3
    ba88:	e2888001 	add	r8, r8, #1
    ba8c:	e3a02003 	mov	r2, #3
    ba90:	e1a01009 	mov	r1, r9
    ba94:	fa0007c2 	blx	d9a4 <memcpy>
    ba98:	e1540008 	cmp	r4, r8
    ba9c:	e080300a 	add	r3, r0, sl
    baa0:	1afffff7 	bne	ba84 <HorzLine24+0x78>
    baa4:	eafffff3 	b	ba78 <HorzLine24+0x6c>

0000baa8 <DiagLine24>:
    baa8:	e92d4ff0 	push	{r4, r5, r6, r7, r8, r9, sl, fp, lr}
    baac:	e1a08000 	mov	r8, r0
    bab0:	e5900018 	ldr	r0, [r0, #24]
    bab4:	e1510002 	cmp	r1, r2
    bab8:	e24dd014 	sub	sp, sp, #20
    babc:	e5987010 	ldr	r7, [r8, #16]
    bac0:	21a06002 	movcs	r6, r2
    bac4:	e598c014 	ldr	ip, [r8, #20]
    bac8:	31a06001 	movcc	r6, r1
    bacc:	e1a05001 	mov	r5, r1
    bad0:	e3510000 	cmp	r1, #0
    bad4:	e5981000 	ldr	r1, [r8]
    bad8:	e1a0e003 	mov	lr, r3
    badc:	e0020097 	mul	r2, r7, r0
    bae0:	e58d300c 	str	r3, [sp, #12]
    bae4:	e08c308c 	add	r3, ip, ip, lsl #1
    bae8:	e58d0008 	str	r0, [sp, #8]
    baec:	e0833001 	add	r3, r3, r1
    baf0:	e58dc004 	str	ip, [sp, #4]
    baf4:	e0822082 	add	r2, r2, r2, lsl #1
    baf8:	e0833002 	add	r3, r3, r2
    bafc:	0a000012 	beq	bb4c <DiagLine24+0xa4>
    bb00:	e59d2038 	ldr	r2, [sp, #56]	; 0x38
    bb04:	e3a0b000 	mov	fp, #0
    bb08:	e1a0400b 	mov	r4, fp
    bb0c:	e08e908e 	add	r9, lr, lr, lsl #1
    bb10:	e288a024 	add	sl, r8, #36	; 0x24
    bb14:	e0070297 	mul	r7, r7, r2
    bb18:	e0877087 	add	r7, r7, r7, lsl #1
    bb1c:	e0844006 	add	r4, r4, r6
    bb20:	e1a00003 	mov	r0, r3
    bb24:	e3a02003 	mov	r2, #3
    bb28:	e1a0100a 	mov	r1, sl
    bb2c:	fa00079c 	blx	d9a4 <memcpy>
    bb30:	e28bb001 	add	fp, fp, #1
    bb34:	e1550004 	cmp	r5, r4
    bb38:	e0803009 	add	r3, r0, r9
    bb3c:	90444005 	subls	r4, r4, r5
    bb40:	90833007 	addls	r3, r3, r7
    bb44:	e155000b 	cmp	r5, fp
    bb48:	1afffff3 	bne	bb1c <DiagLine24+0x74>
    bb4c:	e59d300c 	ldr	r3, [sp, #12]
    bb50:	e59d2004 	ldr	r2, [sp, #4]
    bb54:	e0252395 	mla	r5, r5, r3, r2
    bb58:	e59d3038 	ldr	r3, [sp, #56]	; 0x38
    bb5c:	e59d2008 	ldr	r2, [sp, #8]
    bb60:	e5885014 	str	r5, [r8, #20]
    bb64:	e0262396 	mla	r6, r6, r3, r2
    bb68:	e5886018 	str	r6, [r8, #24]
    bb6c:	e28dd014 	add	sp, sp, #20
    bb70:	e8bd8ff0 	pop	{r4, r5, r6, r7, r8, r9, sl, fp, pc}

0000bb74 <WriteChar24>:
    bb74:	e92d4ff0 	push	{r4, r5, r6, r7, r8, r9, sl, fp, lr}
    bb78:	e30d8eb0 	movw	r8, #57008	; 0xdeb0
    bb7c:	e3408000 	movt	r8, #0
    bb80:	e590a014 	ldr	sl, [r0, #20]
    bb84:	e1a03201 	lsl	r3, r1, #4
    bb88:	e5907010 	ldr	r7, [r0, #16]
    bb8c:	e2889010 	add	r9, r8, #16
    bb90:	e5902000 	ldr	r2, [r0]
    bb94:	e0838008 	add	r8, r3, r8
    bb98:	e5904018 	ldr	r4, [r0, #24]
    bb9c:	e0899003 	add	r9, r9, r3
    bba0:	e08a308a 	add	r3, sl, sl, lsl #1
    bba4:	e0877087 	add	r7, r7, r7, lsl #1
    bba8:	e0833002 	add	r3, r3, r2
    bbac:	e0243794 	mla	r4, r4, r7, r3
    bbb0:	e4981004 	ldr	r1, [r8], #4
    bbb4:	e3a03000 	mov	r3, #0
    bbb8:	e2032007 	and	r2, r3, #7
    bbbc:	e3510000 	cmp	r1, #0
    bbc0:	e5d0b028 	ldrb	fp, [r0, #40]	; 0x28
    bbc4:	e2833001 	add	r3, r3, #1
    bbc8:	e082e082 	add	lr, r2, r2, lsl #1
    bbcc:	e5d06029 	ldrb	r6, [r0, #41]	; 0x29
    bbd0:	e084c00e 	add	ip, r4, lr
    bbd4:	e5d0502a 	ldrb	r5, [r0, #42]	; 0x2a
    bbd8:	b5d0b024 	ldrblt	fp, [r0, #36]	; 0x24
    bbdc:	e1a01081 	lsl	r1, r1, #1
    bbe0:	b5d06025 	ldrblt	r6, [r0, #37]	; 0x25
    bbe4:	b5d05026 	ldrblt	r5, [r0, #38]	; 0x26
    bbe8:	e3520007 	cmp	r2, #7
    bbec:	e7c4b00e 	strb	fp, [r4, lr]
    bbf0:	00844007 	addeq	r4, r4, r7
    bbf4:	e5cc6001 	strb	r6, [ip, #1]
    bbf8:	e3530020 	cmp	r3, #32
    bbfc:	e5cc5002 	strb	r5, [ip, #2]
    bc00:	1affffec 	bne	bbb8 <WriteChar24+0x44>
    bc04:	e1580009 	cmp	r8, r9
    bc08:	1affffe8 	bne	bbb0 <WriteChar24+0x3c>
    bc0c:	e28aa008 	add	sl, sl, #8
    bc10:	e580a014 	str	sl, [r0, #20]
    bc14:	e8bd8ff0 	pop	{r4, r5, r6, r7, r8, r9, sl, fp, pc}

0000bc18 <TransparentWriteChar24>:
    bc18:	e92d4ff0 	push	{r4, r5, r6, r7, r8, r9, sl, fp, lr}
    bc1c:	e1a03201 	lsl	r3, r1, #4
    bc20:	e5902014 	ldr	r2, [r0, #20]
    bc24:	e24dd00c 	sub	sp, sp, #12
    bc28:	e5908010 	ldr	r8, [r0, #16]
    bc2c:	e5901000 	ldr	r1, [r0]
    bc30:	e30d9eb0 	movw	r9, #57008	; 0xdeb0
    bc34:	e3409000 	movt	r9, #0
    bc38:	e5907018 	ldr	r7, [r0, #24]
    bc3c:	e58d2000 	str	r2, [sp]
    bc40:	e0822082 	add	r2, r2, r2, lsl #1
    bc44:	e0822001 	add	r2, r2, r1
    bc48:	e0888088 	add	r8, r8, r8, lsl #1
    bc4c:	e289b010 	add	fp, r9, #16
    bc50:	e0839009 	add	r9, r3, r9
    bc54:	e08b3003 	add	r3, fp, r3
    bc58:	e280b024 	add	fp, r0, #36	; 0x24
    bc5c:	e0272897 	mla	r7, r7, r8, r2
    bc60:	e1a0a00b 	mov	sl, fp
    bc64:	e1a0b003 	mov	fp, r3
    bc68:	e58d0004 	str	r0, [sp, #4]
    bc6c:	e4995004 	ldr	r5, [r9], #4
    bc70:	e3a04000 	mov	r4, #0
    bc74:	e2046007 	and	r6, r4, #7
    bc78:	e3a02003 	mov	r2, #3
    bc7c:	e1a0100a 	mov	r1, sl
    bc80:	e3550000 	cmp	r5, #0
    bc84:	e2844001 	add	r4, r4, #1
    bc88:	aa000002 	bge	bc98 <TransparentWriteChar24+0x80>
    bc8c:	e0860086 	add	r0, r6, r6, lsl #1
    bc90:	e0870000 	add	r0, r7, r0
    bc94:	fa000742 	blx	d9a4 <memcpy>
    bc98:	e3560007 	cmp	r6, #7
    bc9c:	e1a05085 	lsl	r5, r5, #1
    bca0:	00877008 	addeq	r7, r7, r8
    bca4:	e3540020 	cmp	r4, #32
    bca8:	1afffff1 	bne	bc74 <TransparentWriteChar24+0x5c>
    bcac:	e159000b 	cmp	r9, fp
    bcb0:	1affffed 	bne	bc6c <TransparentWriteChar24+0x54>
    bcb4:	e89d0408 	ldm	sp, {r3, sl}
    bcb8:	e2833008 	add	r3, r3, #8
    bcbc:	e58a3014 	str	r3, [sl, #20]
    bcc0:	e28dd00c 	add	sp, sp, #12
    bcc4:	e8bd8ff0 	pop	{r4, r5, r6, r7, r8, r9, sl, fp, pc}

0000bcc8 <PutImage24>:
    bcc8:	e92d4ff0 	push	{r4, r5, r6, r7, r8, r9, sl, fp, lr}
    bccc:	e2528000 	subs	r8, r2, #0
    bcd0:	e5902014 	ldr	r2, [r0, #20]
    bcd4:	e5909010 	ldr	r9, [r0, #16]
    bcd8:	e1a04003 	mov	r4, r3
    bcdc:	e5903000 	ldr	r3, [r0]
    bce0:	e24dd00c 	sub	sp, sp, #12
    bce4:	e5905018 	ldr	r5, [r0, #24]
    bce8:	e0822082 	add	r2, r2, r2, lsl #1
    bcec:	e0822003 	add	r2, r2, r3
    bcf0:	e0899089 	add	r9, r9, r9, lsl #1
    bcf4:	e5dda030 	ldrb	sl, [sp, #48]	; 0x30
    bcf8:	e0252995 	mla	r5, r5, r9, r2
    bcfc:	0a000015 	beq	bd58 <PutImage24+0x90>
    bd00:	e2693000 	rsb	r3, r9, #0
    bd04:	e3510000 	cmp	r1, #0
    bd08:	e58d3004 	str	r3, [sp, #4]
    bd0c:	0a000011 	beq	bd58 <PutImage24+0x90>
    bd10:	e0816081 	add	r6, r1, r1, lsl #1
    bd14:	e3a07000 	mov	r7, #0
    bd18:	e3a0b000 	mov	fp, #0
    bd1c:	e3a02003 	mov	r2, #3
    bd20:	e084100b 	add	r1, r4, fp
    bd24:	e085000b 	add	r0, r5, fp
    bd28:	e08bb002 	add	fp, fp, r2
    bd2c:	fa00071c 	blx	d9a4 <memcpy>
    bd30:	e156000b 	cmp	r6, fp
    bd34:	1afffff8 	bne	bd1c <PutImage24+0x54>
    bd38:	e35a0000 	cmp	sl, #0
    bd3c:	e2877001 	add	r7, r7, #1
    bd40:	00855009 	addeq	r5, r5, r9
    bd44:	e0844006 	add	r4, r4, r6
    bd48:	159d3004 	ldrne	r3, [sp, #4]
    bd4c:	10855003 	addne	r5, r5, r3
    bd50:	e1580007 	cmp	r8, r7
    bd54:	1affffef 	bne	bd18 <PutImage24+0x50>
    bd58:	e28dd00c 	add	sp, sp, #12
    bd5c:	e8bd8ff0 	pop	{r4, r5, r6, r7, r8, r9, sl, fp, pc}

0000bd60 <ClearArea32>:
    bd60:	e92d4030 	push	{r4, r5, lr}
    bd64:	e5905010 	ldr	r5, [r0, #16]
    bd68:	e59d400c 	ldr	r4, [sp, #12]
    bd6c:	e590c000 	ldr	ip, [r0]
    bd70:	e0544002 	subs	r4, r4, r2
    bd74:	e02e2295 	mla	lr, r5, r2, r2
    bd78:	e08cc10e 	add	ip, ip, lr, lsl #2
    bd7c:	08bd8030 	popeq	{r4, r5, pc}
    bd80:	e0531001 	subs	r1, r3, r1
    bd84:	e1a05105 	lsl	r5, r5, #2
    bd88:	08bd8030 	popeq	{r4, r5, pc}
    bd8c:	e3a0e000 	mov	lr, #0
    bd90:	e3a03000 	mov	r3, #0
    bd94:	e590202c 	ldr	r2, [r0, #44]	; 0x2c
    bd98:	e78c2103 	str	r2, [ip, r3, lsl #2]
    bd9c:	e2833001 	add	r3, r3, #1
    bda0:	e1530001 	cmp	r3, r1
    bda4:	1afffffa 	bne	bd94 <ClearArea32+0x34>
    bda8:	e28ee001 	add	lr, lr, #1
    bdac:	e08cc005 	add	ip, ip, r5
    bdb0:	e15e0004 	cmp	lr, r4
    bdb4:	1afffff5 	bne	bd90 <ClearArea32+0x30>
    bdb8:	e8bd8030 	pop	{r4, r5, pc}

0000bdbc <VertLine32>:
    bdbc:	e92d4030 	push	{r4, r5, lr}
    bdc0:	e3510000 	cmp	r1, #0
    bdc4:	e590e010 	ldr	lr, [r0, #16]
    bdc8:	e5905014 	ldr	r5, [r0, #20]
    bdcc:	e5903000 	ldr	r3, [r0]
    bdd0:	e5904018 	ldr	r4, [r0, #24]
    bdd4:	e1a0c10e 	lsl	ip, lr, #2
    bdd8:	e0833105 	add	r3, r3, r5, lsl #2
    bddc:	e023349c 	mla	r3, ip, r4, r3
    bde0:	0a000008 	beq	be08 <VertLine32+0x4c>
    bde4:	e3520001 	cmp	r2, #1
    bde8:	e26c5000 	rsb	r5, ip, #0
    bdec:	0a000008 	beq	be14 <VertLine32+0x58>
    bdf0:	e3a0c000 	mov	ip, #0
    bdf4:	e590e024 	ldr	lr, [r0, #36]	; 0x24
    bdf8:	e28cc001 	add	ip, ip, #1
    bdfc:	e151000c 	cmp	r1, ip
    be00:	e683e005 	str	lr, [r3], r5
    be04:	1afffffa 	bne	bdf4 <VertLine32+0x38>
    be08:	e0214291 	mla	r1, r1, r2, r4
    be0c:	e5801018 	str	r1, [r0, #24]
    be10:	e8bd8030 	pop	{r4, r5, pc}
    be14:	e35e0001 	cmp	lr, #1
    be18:	03a0c000 	moveq	ip, #0
    be1c:	1a000005 	bne	be38 <VertLine32+0x7c>
    be20:	e590e024 	ldr	lr, [r0, #36]	; 0x24
    be24:	e28cc001 	add	ip, ip, #1
    be28:	e151000c 	cmp	r1, ip
    be2c:	e483e004 	str	lr, [r3], #4
    be30:	1afffffa 	bne	be20 <VertLine32+0x64>
    be34:	eafffff3 	b	be08 <VertLine32+0x4c>
    be38:	e3a0e000 	mov	lr, #0
    be3c:	e5905024 	ldr	r5, [r0, #36]	; 0x24
    be40:	e28ee001 	add	lr, lr, #1
    be44:	e151000e 	cmp	r1, lr
    be48:	e683500c 	str	r5, [r3], ip
    be4c:	1afffffa 	bne	be3c <VertLine32+0x80>
    be50:	eaffffec 	b	be08 <VertLine32+0x4c>

0000be54 <HorzLine32>:
    be54:	e92d4030 	push	{r4, r5, lr}
    be58:	e3510000 	cmp	r1, #0
    be5c:	e5904014 	ldr	r4, [r0, #20]
    be60:	e5903018 	ldr	r3, [r0, #24]
    be64:	e590e010 	ldr	lr, [r0, #16]
    be68:	e590c000 	ldr	ip, [r0]
    be6c:	e023439e 	mla	r3, lr, r3, r4
    be70:	e08cc103 	add	ip, ip, r3, lsl #2
    be74:	0a000008 	beq	be9c <HorzLine32+0x48>
    be78:	e3a03000 	mov	r3, #0
    be7c:	e3520001 	cmp	r2, #1
    be80:	e1a05102 	lsl	r5, r2, #2
    be84:	1a000007 	bne	bea8 <HorzLine32+0x54>
    be88:	e590e024 	ldr	lr, [r0, #36]	; 0x24
    be8c:	e2833001 	add	r3, r3, #1
    be90:	e1530001 	cmp	r3, r1
    be94:	e68ce005 	str	lr, [ip], r5
    be98:	1afffffa 	bne	be88 <HorzLine32+0x34>
    be9c:	e0214291 	mla	r1, r1, r2, r4
    bea0:	e5801014 	str	r1, [r0, #20]
    bea4:	e8bd8030 	pop	{r4, r5, pc}
    bea8:	e590e024 	ldr	lr, [r0, #36]	; 0x24
    beac:	e2833001 	add	r3, r3, #1
    beb0:	e1510003 	cmp	r1, r3
    beb4:	e68ce005 	str	lr, [ip], r5
    beb8:	1afffffa 	bne	bea8 <HorzLine32+0x54>
    bebc:	eafffff6 	b	be9c <HorzLine32+0x48>

0000bec0 <DiagLine32>:
    bec0:	e92d47f0 	push	{r4, r5, r6, r7, r8, r9, sl, lr}
    bec4:	e1510002 	cmp	r1, r2
    bec8:	e5908018 	ldr	r8, [r0, #24]
    becc:	e5906010 	ldr	r6, [r0, #16]
    bed0:	31a02001 	movcc	r2, r1
    bed4:	e5909014 	ldr	r9, [r0, #20]
    bed8:	e3510000 	cmp	r1, #0
    bedc:	e590e000 	ldr	lr, [r0]
    bee0:	e59d7020 	ldr	r7, [sp, #32]
    bee4:	e00c0896 	mul	ip, r6, r8
    bee8:	e08ee109 	add	lr, lr, r9, lsl #2
    beec:	e08ee10c 	add	lr, lr, ip, lsl #2
    bef0:	0a00000d 	beq	bf2c <DiagLine32+0x6c>
    bef4:	e0060796 	mul	r6, r6, r7
    bef8:	e3a04000 	mov	r4, #0
    befc:	e1a0c004 	mov	ip, r4
    bf00:	e1a0a103 	lsl	sl, r3, #2
    bf04:	e1a06106 	lsl	r6, r6, #2
    bf08:	e5905024 	ldr	r5, [r0, #36]	; 0x24
    bf0c:	e08cc002 	add	ip, ip, r2
    bf10:	e68e500a 	str	r5, [lr], sl
    bf14:	e151000c 	cmp	r1, ip
    bf18:	e2844001 	add	r4, r4, #1
    bf1c:	904cc001 	subls	ip, ip, r1
    bf20:	908ee006 	addls	lr, lr, r6
    bf24:	e1510004 	cmp	r1, r4
    bf28:	1afffff6 	bne	bf08 <DiagLine32+0x48>
    bf2c:	e0219391 	mla	r1, r1, r3, r9
    bf30:	e0228792 	mla	r2, r2, r7, r8
    bf34:	e5801014 	str	r1, [r0, #20]
    bf38:	e5802018 	str	r2, [r0, #24]
    bf3c:	e8bd87f0 	pop	{r4, r5, r6, r7, r8, r9, sl, pc}

0000bf40 <WriteChar32>:
    bf40:	e92d40f0 	push	{r4, r5, r6, r7, lr}
    bf44:	e30d5eb0 	movw	r5, #57008	; 0xdeb0
    bf48:	e3405000 	movt	r5, #0
    bf4c:	e1a03201 	lsl	r3, r1, #4
    bf50:	e2856010 	add	r6, r5, #16
    bf54:	e5907014 	ldr	r7, [r0, #20]
    bf58:	e0835005 	add	r5, r3, r5
    bf5c:	e5904010 	ldr	r4, [r0, #16]
    bf60:	e0866003 	add	r6, r6, r3
    bf64:	e5903000 	ldr	r3, [r0]
    bf68:	e24dd00c 	sub	sp, sp, #12
    bf6c:	e590e018 	ldr	lr, [r0, #24]
    bf70:	e1a04104 	lsl	r4, r4, #2
    bf74:	e0833107 	add	r3, r3, r7, lsl #2
    bf78:	e02e349e 	mla	lr, lr, r4, r3
    bf7c:	e4952004 	ldr	r2, [r5], #4
    bf80:	e3a03000 	mov	r3, #0
    bf84:	e3520000 	cmp	r2, #0
    bf88:	e2031007 	and	r1, r3, #7
    bf8c:	e2833001 	add	r3, r3, #1
    bf90:	e1a02082 	lsl	r2, r2, #1
    bf94:	a590c028 	ldrge	ip, [r0, #40]	; 0x28
    bf98:	b590c024 	ldrlt	ip, [r0, #36]	; 0x24
    bf9c:	e3510007 	cmp	r1, #7
    bfa0:	e78ec101 	str	ip, [lr, r1, lsl #2]
    bfa4:	008ee004 	addeq	lr, lr, r4
    bfa8:	e58dc004 	str	ip, [sp, #4]
    bfac:	e3530020 	cmp	r3, #32
    bfb0:	1afffff3 	bne	bf84 <WriteChar32+0x44>
    bfb4:	e1550006 	cmp	r5, r6
    bfb8:	1affffef 	bne	bf7c <WriteChar32+0x3c>
    bfbc:	e2877008 	add	r7, r7, #8
    bfc0:	e5807014 	str	r7, [r0, #20]
    bfc4:	e28dd00c 	add	sp, sp, #12
    bfc8:	e8bd80f0 	pop	{r4, r5, r6, r7, pc}

0000bfcc <TransparentWriteChar32>:
    bfcc:	e92d40f0 	push	{r4, r5, r6, r7, lr}
    bfd0:	e30d5eb0 	movw	r5, #57008	; 0xdeb0
    bfd4:	e3405000 	movt	r5, #0
    bfd8:	e1a03201 	lsl	r3, r1, #4
    bfdc:	e2856010 	add	r6, r5, #16
    bfe0:	e5907014 	ldr	r7, [r0, #20]
    bfe4:	e0835005 	add	r5, r3, r5
    bfe8:	e5904010 	ldr	r4, [r0, #16]
    bfec:	e0866003 	add	r6, r6, r3
    bff0:	e5903000 	ldr	r3, [r0]
    bff4:	e590c018 	ldr	ip, [r0, #24]
    bff8:	e1a04104 	lsl	r4, r4, #2
    bffc:	e0833107 	add	r3, r3, r7, lsl #2
    c000:	e02c349c 	mla	ip, ip, r4, r3
    c004:	e4952004 	ldr	r2, [r5], #4
    c008:	e3a03000 	mov	r3, #0
    c00c:	e3520000 	cmp	r2, #0
    c010:	e2031007 	and	r1, r3, #7
    c014:	e2833001 	add	r3, r3, #1
    c018:	e1a02082 	lsl	r2, r2, #1
    c01c:	b590e024 	ldrlt	lr, [r0, #36]	; 0x24
    c020:	b78ce101 	strlt	lr, [ip, r1, lsl #2]
    c024:	e3510007 	cmp	r1, #7
    c028:	008cc004 	addeq	ip, ip, r4
    c02c:	e3530020 	cmp	r3, #32
    c030:	1afffff5 	bne	c00c <TransparentWriteChar32+0x40>
    c034:	e1550006 	cmp	r5, r6
    c038:	1afffff1 	bne	c004 <TransparentWriteChar32+0x38>
    c03c:	e2877008 	add	r7, r7, #8
    c040:	e5807014 	str	r7, [r0, #20]
    c044:	e8bd80f0 	pop	{r4, r5, r6, r7, pc}

0000c048 <PutImage32>:
    c048:	e92d41f0 	push	{r4, r5, r6, r7, r8, lr}
    c04c:	e2524000 	subs	r4, r2, #0
    c050:	e5905010 	ldr	r5, [r0, #16]
    c054:	e590e014 	ldr	lr, [r0, #20]
    c058:	e5902000 	ldr	r2, [r0]
    c05c:	e590c018 	ldr	ip, [r0, #24]
    c060:	e1a05105 	lsl	r5, r5, #2
    c064:	e5dd6018 	ldrb	r6, [sp, #24]
    c068:	e082210e 	add	r2, r2, lr, lsl #2
    c06c:	e02c259c 	mla	ip, ip, r5, r2
    c070:	08bd81f0 	popeq	{r4, r5, r6, r7, r8, pc}
    c074:	e3510000 	cmp	r1, #0
    c078:	e2658000 	rsb	r8, r5, #0
    c07c:	08bd81f0 	popeq	{r4, r5, r6, r7, r8, pc}
    c080:	e1a00003 	mov	r0, r3
    c084:	e1a07101 	lsl	r7, r1, #2
    c088:	e3a0e000 	mov	lr, #0
    c08c:	e3a03000 	mov	r3, #0
    c090:	e7902103 	ldr	r2, [r0, r3, lsl #2]
    c094:	e78c2103 	str	r2, [ip, r3, lsl #2]
    c098:	e2833001 	add	r3, r3, #1
    c09c:	e1510003 	cmp	r1, r3
    c0a0:	1afffffa 	bne	c090 <PutImage32+0x48>
    c0a4:	e3560000 	cmp	r6, #0
    c0a8:	e28ee001 	add	lr, lr, #1
    c0ac:	108cc008 	addne	ip, ip, r8
    c0b0:	008cc005 	addeq	ip, ip, r5
    c0b4:	e0800007 	add	r0, r0, r7
    c0b8:	e154000e 	cmp	r4, lr
    c0bc:	1afffff2 	bne	c08c <PutImage32+0x44>
    c0c0:	e8bd81f0 	pop	{r4, r5, r6, r7, r8, pc}

0000c0c4 <mailbox_tag_message.constprop.2>:
    c0c4:	e92d000e 	push	{r1, r2, r3}
    c0c8:	e3a01068 	mov	r1, #104	; 0x68
    c0cc:	e92d4030 	push	{r4, r5, lr}
    c0d0:	e1a04000 	mov	r4, r0
    c0d4:	e24dd090 	sub	sp, sp, #144	; 0x90
    c0d8:	e28d5017 	add	r5, sp, #23
    c0dc:	e28d20a0 	add	r2, sp, #160	; 0xa0
    c0e0:	e3c5500f 	bic	r5, r5, #15
    c0e4:	e2853008 	add	r3, r5, #8
    c0e8:	e2850064 	add	r0, r5, #100	; 0x64
    c0ec:	e58d2004 	str	r2, [sp, #4]
    c0f0:	e5851000 	str	r1, [r5]
    c0f4:	e3a01000 	mov	r1, #0
    c0f8:	e5851064 	str	r1, [r5, #100]	; 0x64
    c0fc:	e5851004 	str	r1, [r5, #4]
    c100:	e4921004 	ldr	r1, [r2], #4
    c104:	e4831004 	str	r1, [r3], #4
    c108:	e1530000 	cmp	r3, r0
    c10c:	1afffffb 	bne	c100 <mailbox_tag_message.constprop.2+0x3c>
    c110:	e1a00005 	mov	r0, r5
    c114:	ebfff0cf 	bl	8458 <ARMaddrToGPUaddr>
    c118:	e30e3ebc 	movw	r3, #61116	; 0xeebc
    c11c:	e3403000 	movt	r3, #0
    c120:	e3c0000f 	bic	r0, r0, #15
    c124:	e3800008 	orr	r0, r0, #8
    c128:	e5931000 	ldr	r1, [r3]
    c12c:	e2811b2e 	add	r1, r1, #47104	; 0xb800
    c130:	e2811080 	add	r1, r1, #128	; 0x80
    c134:	e5913038 	ldr	r3, [r1, #56]	; 0x38
    c138:	e3530000 	cmp	r3, #0
    c13c:	bafffffc 	blt	c134 <mailbox_tag_message.constprop.2+0x70>
    c140:	e5810020 	str	r0, [r1, #32]
    c144:	e5913018 	ldr	r3, [r1, #24]
    c148:	e2133101 	ands	r3, r3, #1073741824	; 0x40000000
    c14c:	1afffffc 	bne	c144 <mailbox_tag_message.constprop.2+0x80>
    c150:	e5912000 	ldr	r2, [r1]
    c154:	e202200f 	and	r2, r2, #15
    c158:	e3520008 	cmp	r2, #8
    c15c:	1afffff8 	bne	c144 <mailbox_tag_message.constprop.2+0x80>
    c160:	e5952004 	ldr	r2, [r5, #4]
    c164:	e3520102 	cmp	r2, #-2147483648	; 0x80000000
    c168:	11a00003 	movne	r0, r3
    c16c:	0a000003 	beq	c180 <mailbox_tag_message.constprop.2+0xbc>
    c170:	e28dd090 	add	sp, sp, #144	; 0x90
    c174:	e8bd4030 	pop	{r4, r5, lr}
    c178:	e28dd00c 	add	sp, sp, #12
    c17c:	e12fff1e 	bx	lr
    c180:	e3540000 	cmp	r4, #0
    c184:	12853004 	addne	r3, r5, #4
    c188:	12444004 	subne	r4, r4, #4
    c18c:	12855060 	addne	r5, r5, #96	; 0x60
    c190:	0a000003 	beq	c1a4 <mailbox_tag_message.constprop.2+0xe0>
    c194:	e5b32004 	ldr	r2, [r3, #4]!
    c198:	e5a42004 	str	r2, [r4, #4]!
    c19c:	e1530005 	cmp	r3, r5
    c1a0:	1afffffb 	bne	c194 <mailbox_tag_message.constprop.2+0xd0>
    c1a4:	e3a00001 	mov	r0, #1
    c1a8:	e28dd090 	add	sp, sp, #144	; 0x90
    c1ac:	e8bd4030 	pop	{r4, r5, lr}
    c1b0:	e28dd00c 	add	sp, sp, #12
    c1b4:	e12fff1e 	bx	lr

0000c1b8 <mailbox_tag_message.constprop.0>:
    c1b8:	e92d000e 	push	{r1, r2, r3}
    c1bc:	e3a01020 	mov	r1, #32
    c1c0:	e92d4030 	push	{r4, r5, lr}
    c1c4:	e1a04000 	mov	r4, r0
    c1c8:	e24dd090 	sub	sp, sp, #144	; 0x90
    c1cc:	e28d5017 	add	r5, sp, #23
    c1d0:	e28d30a0 	add	r3, sp, #160	; 0xa0
    c1d4:	e3c5500f 	bic	r5, r5, #15
    c1d8:	e59d20a0 	ldr	r2, [sp, #160]	; 0xa0
    c1dc:	e1a00005 	mov	r0, r5
    c1e0:	e58d3004 	str	r3, [sp, #4]
    c1e4:	e5851000 	str	r1, [r5]
    c1e8:	e59d10a4 	ldr	r1, [sp, #164]	; 0xa4
    c1ec:	e585100c 	str	r1, [r5, #12]
    c1f0:	e59d10a8 	ldr	r1, [sp, #168]	; 0xa8
    c1f4:	e59d30b0 	ldr	r3, [sp, #176]	; 0xb0
    c1f8:	e5851010 	str	r1, [r5, #16]
    c1fc:	e59d10ac 	ldr	r1, [sp, #172]	; 0xac
    c200:	e5852008 	str	r2, [r5, #8]
    c204:	e3a02000 	mov	r2, #0
    c208:	e5851014 	str	r1, [r5, #20]
    c20c:	e5853018 	str	r3, [r5, #24]
    c210:	e585201c 	str	r2, [r5, #28]
    c214:	e5852004 	str	r2, [r5, #4]
    c218:	ebfff08e 	bl	8458 <ARMaddrToGPUaddr>
    c21c:	e30e3ebc 	movw	r3, #61116	; 0xeebc
    c220:	e3403000 	movt	r3, #0
    c224:	e3c0000f 	bic	r0, r0, #15
    c228:	e3800008 	orr	r0, r0, #8
    c22c:	e5931000 	ldr	r1, [r3]
    c230:	e2811b2e 	add	r1, r1, #47104	; 0xb800
    c234:	e2811080 	add	r1, r1, #128	; 0x80
    c238:	e5913038 	ldr	r3, [r1, #56]	; 0x38
    c23c:	e3530000 	cmp	r3, #0
    c240:	bafffffc 	blt	c238 <mailbox_tag_message.constprop.0+0x80>
    c244:	e5810020 	str	r0, [r1, #32]
    c248:	e5913018 	ldr	r3, [r1, #24]
    c24c:	e2133101 	ands	r3, r3, #1073741824	; 0x40000000
    c250:	1afffffc 	bne	c248 <mailbox_tag_message.constprop.0+0x90>
    c254:	e5912000 	ldr	r2, [r1]
    c258:	e202200f 	and	r2, r2, #15
    c25c:	e3520008 	cmp	r2, #8
    c260:	1afffff8 	bne	c248 <mailbox_tag_message.constprop.0+0x90>
    c264:	e5952004 	ldr	r2, [r5, #4]
    c268:	e3520102 	cmp	r2, #-2147483648	; 0x80000000
    c26c:	11a00003 	movne	r0, r3
    c270:	0a000003 	beq	c284 <mailbox_tag_message.constprop.0+0xcc>
    c274:	e28dd090 	add	sp, sp, #144	; 0x90
    c278:	e8bd4030 	pop	{r4, r5, lr}
    c27c:	e28dd00c 	add	sp, sp, #12
    c280:	e12fff1e 	bx	lr
    c284:	e3540000 	cmp	r4, #0
    c288:	0a000004 	beq	c2a0 <mailbox_tag_message.constprop.0+0xe8>
    c28c:	e285000c 	add	r0, r5, #12
    c290:	e595c008 	ldr	ip, [r5, #8]
    c294:	e584c000 	str	ip, [r4]
    c298:	e890000f 	ldm	r0, {r0, r1, r2, r3}
    c29c:	e984000f 	stmib	r4, {r0, r1, r2, r3}
    c2a0:	e3a00001 	mov	r0, #1
    c2a4:	e28dd090 	add	sp, sp, #144	; 0x90
    c2a8:	e8bd4030 	pop	{r4, r5, lr}
    c2ac:	e28dd00c 	add	sp, sp, #12
    c2b0:	e12fff1e 	bx	lr

0000c2b4 <mailbox_tag_message.constprop.1>:
    c2b4:	e92d000e 	push	{r1, r2, r3}
    c2b8:	e3a0101c 	mov	r1, #28
    c2bc:	e92d4030 	push	{r4, r5, lr}
    c2c0:	e1a04000 	mov	r4, r0
    c2c4:	e24dd090 	sub	sp, sp, #144	; 0x90
    c2c8:	e28d5017 	add	r5, sp, #23
    c2cc:	e28d30a0 	add	r3, sp, #160	; 0xa0
    c2d0:	e3c5500f 	bic	r5, r5, #15
    c2d4:	e59d20a0 	ldr	r2, [sp, #160]	; 0xa0
    c2d8:	e1a00005 	mov	r0, r5
    c2dc:	e58d3004 	str	r3, [sp, #4]
    c2e0:	e5851000 	str	r1, [r5]
    c2e4:	e59d10a4 	ldr	r1, [sp, #164]	; 0xa4
    c2e8:	e59d30ac 	ldr	r3, [sp, #172]	; 0xac
    c2ec:	e585100c 	str	r1, [r5, #12]
    c2f0:	e59d10a8 	ldr	r1, [sp, #168]	; 0xa8
    c2f4:	e5852008 	str	r2, [r5, #8]
    c2f8:	e3a02000 	mov	r2, #0
    c2fc:	e5851010 	str	r1, [r5, #16]
    c300:	e5853014 	str	r3, [r5, #20]
    c304:	e5852018 	str	r2, [r5, #24]
    c308:	e5852004 	str	r2, [r5, #4]
    c30c:	ebfff051 	bl	8458 <ARMaddrToGPUaddr>
    c310:	e30e3ebc 	movw	r3, #61116	; 0xeebc
    c314:	e3403000 	movt	r3, #0
    c318:	e3c0000f 	bic	r0, r0, #15
    c31c:	e3800008 	orr	r0, r0, #8
    c320:	e5931000 	ldr	r1, [r3]
    c324:	e2811b2e 	add	r1, r1, #47104	; 0xb800
    c328:	e2811080 	add	r1, r1, #128	; 0x80
    c32c:	e5913038 	ldr	r3, [r1, #56]	; 0x38
    c330:	e3530000 	cmp	r3, #0
    c334:	bafffffc 	blt	c32c <mailbox_tag_message.constprop.1+0x78>
    c338:	e5810020 	str	r0, [r1, #32]
    c33c:	e5913018 	ldr	r3, [r1, #24]
    c340:	e2133101 	ands	r3, r3, #1073741824	; 0x40000000
    c344:	1afffffc 	bne	c33c <mailbox_tag_message.constprop.1+0x88>
    c348:	e5912000 	ldr	r2, [r1]
    c34c:	e202200f 	and	r2, r2, #15
    c350:	e3520008 	cmp	r2, #8
    c354:	1afffff8 	bne	c33c <mailbox_tag_message.constprop.1+0x88>
    c358:	e5952004 	ldr	r2, [r5, #4]
    c35c:	e3520102 	cmp	r2, #-2147483648	; 0x80000000
    c360:	11a00003 	movne	r0, r3
    c364:	0a000003 	beq	c378 <mailbox_tag_message.constprop.1+0xc4>
    c368:	e28dd090 	add	sp, sp, #144	; 0x90
    c36c:	e8bd4030 	pop	{r4, r5, lr}
    c370:	e28dd00c 	add	sp, sp, #12
    c374:	e12fff1e 	bx	lr
    c378:	e3540000 	cmp	r4, #0
    c37c:	1285100c 	addne	r1, r5, #12
    c380:	13a00001 	movne	r0, #1
    c384:	03a00001 	moveq	r0, #1
    c388:	1595c008 	ldrne	ip, [r5, #8]
    c38c:	1891000e 	ldmne	r1, {r1, r2, r3}
    c390:	1584c000 	strne	ip, [r4]
    c394:	1984000e 	stmibne	r4, {r1, r2, r3}
    c398:	e28dd090 	add	sp, sp, #144	; 0x90
    c39c:	e8bd4030 	pop	{r4, r5, lr}
    c3a0:	e28dd00c 	add	sp, sp, #12
    c3a4:	e12fff1e 	bx	lr

0000c3a8 <RPi_CpuIdString>:
    c3a8:	e30e3ed0 	movw	r3, #61136	; 0xeed0
    c3ac:	e3403000 	movt	r3, #0
    c3b0:	e3002c07 	movw	r2, #3079	; 0xc07
    c3b4:	e1d300b0 	ldrh	r0, [r3]
    c3b8:	e1520220 	cmp	r2, r0, lsr #4
    c3bc:	e1a00220 	lsr	r0, r0, #4
    c3c0:	0a00000e 	beq	c400 <RPi_CpuIdString+0x58>
    c3c4:	e3003d03 	movw	r3, #3331	; 0xd03
    c3c8:	e1500003 	cmp	r0, r3
    c3cc:	0a000008 	beq	c3f4 <RPi_CpuIdString+0x4c>
    c3d0:	e3001b76 	movw	r1, #2934	; 0xb76
    c3d4:	e30d3dc8 	movw	r3, #56776	; 0xddc8
    c3d8:	e3403000 	movt	r3, #0
    c3dc:	e1500001 	cmp	r0, r1
    c3e0:	e30d2df0 	movw	r2, #56816	; 0xddf0
    c3e4:	e3402000 	movt	r2, #0
    c3e8:	11a00003 	movne	r0, r3
    c3ec:	01a00002 	moveq	r0, r2
    c3f0:	e12fff1e 	bx	lr
    c3f4:	e30d0dd8 	movw	r0, #56792	; 0xddd8
    c3f8:	e3400000 	movt	r0, #0
    c3fc:	e12fff1e 	bx	lr
    c400:	e30d0de4 	movw	r0, #56804	; 0xdde4
    c404:	e3400000 	movt	r0, #0
    c408:	e12fff1e 	bx	lr

0000c40c <gpio_setup>:
    c40c:	e3500036 	cmp	r0, #54	; 0x36
    c410:	93510007 	cmpls	r1, #7
    c414:	9a000001 	bls	c420 <gpio_setup+0x14>
    c418:	e3a00000 	mov	r0, #0
    c41c:	e12fff1e 	bx	lr
    c420:	e1a03000 	mov	r3, r0
    c424:	e30c2ccd 	movw	r2, #52429	; 0xcccd
    c428:	e34c2ccc 	movt	r2, #52428	; 0xcccc
    c42c:	e92d4010 	push	{r4, lr}
    c430:	e30eeebc 	movw	lr, #61116	; 0xeebc
    c434:	e340e000 	movt	lr, #0
    c438:	e3a0c00a 	mov	ip, #10
    c43c:	e0820392 	umull	r0, r2, r2, r3
    c440:	e3a00001 	mov	r0, #1
    c444:	e3a04007 	mov	r4, #7
    c448:	e59ee000 	ldr	lr, [lr]
    c44c:	e1a021a2 	lsr	r2, r2, #3
    c450:	e28ee602 	add	lr, lr, #2097152	; 0x200000
    c454:	e063329c 	mls	r3, ip, r2, r3
    c458:	e79ec102 	ldr	ip, [lr, r2, lsl #2]
    c45c:	e0833013 	add	r3, r3, r3, lsl r0
    c460:	e1ccc314 	bic	ip, ip, r4, lsl r3
    c464:	e18c1311 	orr	r1, ip, r1, lsl r3
    c468:	e78e1102 	str	r1, [lr, r2, lsl #2]
    c46c:	e8bd8010 	pop	{r4, pc}

0000c470 <gpio_output>:
    c470:	e3500035 	cmp	r0, #53	; 0x35
    c474:	9a000001 	bls	c480 <gpio_output+0x10>
    c478:	e3a00000 	mov	r0, #0
    c47c:	e12fff1e 	bx	lr
    c480:	e200301f 	and	r3, r0, #31
    c484:	e3a02001 	mov	r2, #1
    c488:	e1a002a0 	lsr	r0, r0, #5
    c48c:	e3510000 	cmp	r1, #0
    c490:	e1a02312 	lsl	r2, r2, r3
    c494:	e30e3ebc 	movw	r3, #61116	; 0xeebc
    c498:	e3403000 	movt	r3, #0
    c49c:	e5933000 	ldr	r3, [r3]
    c4a0:	e0830100 	add	r0, r3, r0, lsl #2
    c4a4:	e2800602 	add	r0, r0, #2097152	; 0x200000
    c4a8:	1280001c 	addne	r0, r0, #28
    c4ac:	02800028 	addeq	r0, r0, #40	; 0x28
    c4b0:	e5802000 	str	r2, [r0]
    c4b4:	e3a00001 	mov	r0, #1
    c4b8:	e12fff1e 	bx	lr

0000c4bc <gpio_input>:
    c4bc:	e3500035 	cmp	r0, #53	; 0x35
    c4c0:	8a00000d 	bhi	c4fc <gpio_input+0x40>
    c4c4:	e30e2ebc 	movw	r2, #61116	; 0xeebc
    c4c8:	e3402000 	movt	r2, #0
    c4cc:	e1a0c2a0 	lsr	ip, r0, #5
    c4d0:	e3a01001 	mov	r1, #1
    c4d4:	e200001f 	and	r0, r0, #31
    c4d8:	e5923000 	ldr	r3, [r2]
    c4dc:	e083310c 	add	r3, r3, ip, lsl #2
    c4e0:	e2833602 	add	r3, r3, #2097152	; 0x200000
    c4e4:	e2833030 	add	r3, r3, #48	; 0x30
    c4e8:	e5933004 	ldr	r3, [r3, #4]
    c4ec:	e0133011 	ands	r3, r3, r1, lsl r0
    c4f0:	11a00001 	movne	r0, r1
    c4f4:	03a00000 	moveq	r0, #0
    c4f8:	e12fff1e 	bx	lr
    c4fc:	e3a00000 	mov	r0, #0
    c500:	e12fff1e 	bx	lr

0000c504 <gpio_checkEvent>:
    c504:	e3500035 	cmp	r0, #53	; 0x35
    c508:	8a00000c 	bhi	c540 <gpio_checkEvent+0x3c>
    c50c:	e30e3ebc 	movw	r3, #61116	; 0xeebc
    c510:	e3403000 	movt	r3, #0
    c514:	e1a022a0 	lsr	r2, r0, #5
    c518:	e3a01001 	mov	r1, #1
    c51c:	e2822010 	add	r2, r2, #16
    c520:	e200001f 	and	r0, r0, #31
    c524:	e5933000 	ldr	r3, [r3]
    c528:	e2833602 	add	r3, r3, #2097152	; 0x200000
    c52c:	e7933102 	ldr	r3, [r3, r2, lsl #2]
    c530:	e0133011 	ands	r3, r3, r1, lsl r0
    c534:	11a00001 	movne	r0, r1
    c538:	03a00000 	moveq	r0, #0
    c53c:	e12fff1e 	bx	lr
    c540:	e3a00000 	mov	r0, #0
    c544:	e12fff1e 	bx	lr

0000c548 <gpio_clearEvent>:
    c548:	e3500035 	cmp	r0, #53	; 0x35
    c54c:	9a000001 	bls	c558 <gpio_clearEvent+0x10>
    c550:	e3a00000 	mov	r0, #0
    c554:	e12fff1e 	bx	lr
    c558:	e30e1ebc 	movw	r1, #61116	; 0xeebc
    c55c:	e3401000 	movt	r1, #0
    c560:	e3a02001 	mov	r2, #1
    c564:	e200301f 	and	r3, r0, #31
    c568:	e1a0c2a0 	lsr	ip, r0, #5
    c56c:	e1a00002 	mov	r0, r2
    c570:	e5911000 	ldr	r1, [r1]
    c574:	e1a03312 	lsl	r3, r2, r3
    c578:	e28cc010 	add	ip, ip, #16
    c57c:	e2812602 	add	r2, r1, #2097152	; 0x200000
    c580:	e782310c 	str	r3, [r2, ip, lsl #2]
    c584:	e12fff1e 	bx	lr

0000c588 <gpio_edgeDetect>:
    c588:	e3500035 	cmp	r0, #53	; 0x35
    c58c:	9a000001 	bls	c598 <gpio_edgeDetect+0x10>
    c590:	e3a00000 	mov	r0, #0
    c594:	e12fff1e 	bx	lr
    c598:	e3a0c001 	mov	ip, #1
    c59c:	e52de004 	push	{lr}		; (str lr, [sp, #-4]!)
    c5a0:	e200e01f 	and	lr, r0, #31
    c5a4:	e3510000 	cmp	r1, #0
    c5a8:	e1a0ee1c 	lsl	lr, ip, lr
    c5ac:	0a00000a 	beq	c5dc <gpio_edgeDetect+0x54>
    c5b0:	e3520000 	cmp	r2, #0
    c5b4:	0a00001c 	beq	c62c <gpio_edgeDetect+0xa4>
    c5b8:	e30e1ebc 	movw	r1, #61116	; 0xeebc
    c5bc:	e3401000 	movt	r1, #0
    c5c0:	e1a032a0 	lsr	r3, r0, #5
    c5c4:	e1a00002 	mov	r0, r2
    c5c8:	e5912000 	ldr	r2, [r1]
    c5cc:	e0823103 	add	r3, r2, r3, lsl #2
    c5d0:	e2833602 	add	r3, r3, #2097152	; 0x200000
    c5d4:	e583e07c 	str	lr, [r3, #124]	; 0x7c
    c5d8:	e49df004 	pop	{pc}		; (ldr pc, [sp], #4)
    c5dc:	e3520000 	cmp	r2, #0
    c5e0:	0a000008 	beq	c608 <gpio_edgeDetect+0x80>
    c5e4:	e30e1ebc 	movw	r1, #61116	; 0xeebc
    c5e8:	e3401000 	movt	r1, #0
    c5ec:	e1a032a0 	lsr	r3, r0, #5
    c5f0:	e1a00002 	mov	r0, r2
    c5f4:	e2833022 	add	r3, r3, #34	; 0x22
    c5f8:	e5912000 	ldr	r2, [r1]
    c5fc:	e2822602 	add	r2, r2, #2097152	; 0x200000
    c600:	e782e103 	str	lr, [r2, r3, lsl #2]
    c604:	e49df004 	pop	{pc}		; (ldr pc, [sp], #4)
    c608:	e30e2ebc 	movw	r2, #61116	; 0xeebc
    c60c:	e3402000 	movt	r2, #0
    c610:	e1a032a0 	lsr	r3, r0, #5
    c614:	e1a0000c 	mov	r0, ip
    c618:	e2833016 	add	r3, r3, #22
    c61c:	e5922000 	ldr	r2, [r2]
    c620:	e2822602 	add	r2, r2, #2097152	; 0x200000
    c624:	e782e103 	str	lr, [r2, r3, lsl #2]
    c628:	e49df004 	pop	{pc}		; (ldr pc, [sp], #4)
    c62c:	e30e2ebc 	movw	r2, #61116	; 0xeebc
    c630:	e3402000 	movt	r2, #0
    c634:	e1a032a0 	lsr	r3, r0, #5
    c638:	e1a00001 	mov	r0, r1
    c63c:	e5922000 	ldr	r2, [r2]
    c640:	e0823103 	add	r3, r2, r3, lsl #2
    c644:	e2833602 	add	r3, r3, #2097152	; 0x200000
    c648:	e583e04c 	str	lr, [r3, #76]	; 0x4c
    c64c:	e49df004 	pop	{pc}		; (ldr pc, [sp], #4)

0000c650 <gpio_fixResistor>:
    c650:	e3500036 	cmp	r0, #54	; 0x36
    c654:	93510002 	cmpls	r1, #2
    c658:	9a000001 	bls	c664 <gpio_fixResistor+0x14>
    c65c:	e3a00000 	mov	r0, #0
    c660:	e12fff1e 	bx	lr
    c664:	e30e3ebc 	movw	r3, #61116	; 0xeebc
    c668:	e3403000 	movt	r3, #0
    c66c:	e92d4ff0 	push	{r4, r5, r6, r7, r8, r9, sl, fp, lr}
    c670:	e5933000 	ldr	r3, [r3]
    c674:	e2832602 	add	r2, r3, #2097152	; 0x200000
    c678:	e2833a03 	add	r3, r3, #12288	; 0x3000
    c67c:	e5821094 	str	r1, [r2, #148]	; 0x94
    c680:	e5931008 	ldr	r1, [r3, #8]
    c684:	e593e004 	ldr	lr, [r3, #4]
    c688:	e593c008 	ldr	ip, [r3, #8]
    c68c:	e151000c 	cmp	r1, ip
    c690:	1afffffa 	bne	c680 <gpio_fixResistor+0x30>
    c694:	e3a08000 	mov	r8, #0
    c698:	e1a09001 	mov	r9, r1
    c69c:	e188800e 	orr	r8, r8, lr
    c6a0:	e298a002 	adds	sl, r8, #2
    c6a4:	e2a9b000 	adc	fp, r9, #0
    c6a8:	e5931008 	ldr	r1, [r3, #8]
    c6ac:	e593e004 	ldr	lr, [r3, #4]
    c6b0:	e593c008 	ldr	ip, [r3, #8]
    c6b4:	e151000c 	cmp	r1, ip
    c6b8:	1afffffa 	bne	c6a8 <gpio_fixResistor+0x58>
    c6bc:	e3a06000 	mov	r6, #0
    c6c0:	e15b0001 	cmp	fp, r1
    c6c4:	e186800e 	orr	r8, r6, lr
    c6c8:	e1a09001 	mov	r9, r1
    c6cc:	015a0008 	cmpeq	sl, r8
    c6d0:	8afffff4 	bhi	c6a8 <gpio_fixResistor+0x58>
    c6d4:	e1a0e2a0 	lsr	lr, r0, #5
    c6d8:	e3a01001 	mov	r1, #1
    c6dc:	e200001f 	and	r0, r0, #31
    c6e0:	e082e10e 	add	lr, r2, lr, lsl #2
    c6e4:	e1a00011 	lsl	r0, r1, r0
    c6e8:	e58e0098 	str	r0, [lr, #152]	; 0x98
    c6ec:	e5931008 	ldr	r1, [r3, #8]
    c6f0:	e593c004 	ldr	ip, [r3, #4]
    c6f4:	e5930008 	ldr	r0, [r3, #8]
    c6f8:	e1510000 	cmp	r1, r0
    c6fc:	1afffffa 	bne	c6ec <gpio_fixResistor+0x9c>
    c700:	e3a06000 	mov	r6, #0
    c704:	e1a07001 	mov	r7, r1
    c708:	e186600c 	orr	r6, r6, ip
    c70c:	e2966002 	adds	r6, r6, #2
    c710:	e2a77000 	adc	r7, r7, #0
    c714:	e5931008 	ldr	r1, [r3, #8]
    c718:	e593c004 	ldr	ip, [r3, #4]
    c71c:	e5930008 	ldr	r0, [r3, #8]
    c720:	e1510000 	cmp	r1, r0
    c724:	1afffffa 	bne	c714 <gpio_fixResistor+0xc4>
    c728:	e3a04000 	mov	r4, #0
    c72c:	e1570001 	cmp	r7, r1
    c730:	e184000c 	orr	r0, r4, ip
    c734:	e1a05001 	mov	r5, r1
    c738:	01560000 	cmpeq	r6, r0
    c73c:	8afffff4 	bhi	c714 <gpio_fixResistor+0xc4>
    c740:	e5824094 	str	r4, [r2, #148]	; 0x94
    c744:	e3a00001 	mov	r0, #1
    c748:	e58e4098 	str	r4, [lr, #152]	; 0x98
    c74c:	e8bd8ff0 	pop	{r4, r5, r6, r7, r8, r9, sl, fp, pc}

0000c750 <timer_getTickCount64>:
    c750:	e30e3ebc 	movw	r3, #61116	; 0xeebc
    c754:	e3403000 	movt	r3, #0
    c758:	e92d0030 	push	{r4, r5}
    c75c:	e5933000 	ldr	r3, [r3]
    c760:	e2833a03 	add	r3, r3, #12288	; 0x3000
    c764:	e5932008 	ldr	r2, [r3, #8]
    c768:	e5930004 	ldr	r0, [r3, #4]
    c76c:	e5931008 	ldr	r1, [r3, #8]
    c770:	e1520001 	cmp	r2, r1
    c774:	1afffffa 	bne	c764 <timer_getTickCount64+0x14>
    c778:	e3a04000 	mov	r4, #0
    c77c:	e1a01002 	mov	r1, r2
    c780:	e1840000 	orr	r0, r4, r0
    c784:	e8bd0030 	pop	{r4, r5}
    c788:	e12fff1e 	bx	lr

0000c78c <timer_wait>:
    c78c:	e30e3ebc 	movw	r3, #61116	; 0xeebc
    c790:	e3403000 	movt	r3, #0
    c794:	e92d03f0 	push	{r4, r5, r6, r7, r8, r9}
    c798:	e1a06000 	mov	r6, r0
    c79c:	e1a07001 	mov	r7, r1
    c7a0:	e5933000 	ldr	r3, [r3]
    c7a4:	e2833a03 	add	r3, r3, #12288	; 0x3000
    c7a8:	e5932008 	ldr	r2, [r3, #8]
    c7ac:	e593c004 	ldr	ip, [r3, #4]
    c7b0:	e5931008 	ldr	r1, [r3, #8]
    c7b4:	e1520001 	cmp	r2, r1
    c7b8:	1afffffa 	bne	c7a8 <timer_wait+0x1c>
    c7bc:	e3a00000 	mov	r0, #0
    c7c0:	e1a01002 	mov	r1, r2
    c7c4:	e180000c 	orr	r0, r0, ip
    c7c8:	e0966000 	adds	r6, r6, r0
    c7cc:	e0a77001 	adc	r7, r7, r1
    c7d0:	e5932008 	ldr	r2, [r3, #8]
    c7d4:	e5930004 	ldr	r0, [r3, #4]
    c7d8:	e5931008 	ldr	r1, [r3, #8]
    c7dc:	e1520001 	cmp	r2, r1
    c7e0:	1afffffa 	bne	c7d0 <timer_wait+0x44>
    c7e4:	e3a04000 	mov	r4, #0
    c7e8:	e1570002 	cmp	r7, r2
    c7ec:	e1848000 	orr	r8, r4, r0
    c7f0:	01560008 	cmpeq	r6, r8
    c7f4:	8afffff5 	bhi	c7d0 <timer_wait+0x44>
    c7f8:	e8bd03f0 	pop	{r4, r5, r6, r7, r8, r9}
    c7fc:	e12fff1e 	bx	lr

0000c800 <tick_difference>:
    c800:	e0520000 	subs	r0, r2, r0
    c804:	e0c31001 	sbc	r1, r3, r1
    c808:	e12fff1e 	bx	lr

0000c80c <mailbox_write>:
    c80c:	e3500009 	cmp	r0, #9
    c810:	8a00000c 	bhi	c848 <mailbox_write+0x3c>
    c814:	e30e3ebc 	movw	r3, #61116	; 0xeebc
    c818:	e3403000 	movt	r3, #0
    c81c:	e3c1100f 	bic	r1, r1, #15
    c820:	e1800001 	orr	r0, r0, r1
    c824:	e5932000 	ldr	r2, [r3]
    c828:	e2822b2e 	add	r2, r2, #47104	; 0xb800
    c82c:	e2822080 	add	r2, r2, #128	; 0x80
    c830:	e5923038 	ldr	r3, [r2, #56]	; 0x38
    c834:	e3530000 	cmp	r3, #0
    c838:	bafffffc 	blt	c830 <mailbox_write+0x24>
    c83c:	e5820020 	str	r0, [r2, #32]
    c840:	e3a00001 	mov	r0, #1
    c844:	e12fff1e 	bx	lr
    c848:	e3a00000 	mov	r0, #0
    c84c:	e12fff1e 	bx	lr

0000c850 <mailbox_read>:
    c850:	e3500009 	cmp	r0, #9
    c854:	8a00000d 	bhi	c890 <mailbox_read+0x40>
    c858:	e30e3ebc 	movw	r3, #61116	; 0xeebc
    c85c:	e3403000 	movt	r3, #0
    c860:	e5932000 	ldr	r2, [r3]
    c864:	e2822b2e 	add	r2, r2, #47104	; 0xb800
    c868:	e2822080 	add	r2, r2, #128	; 0x80
    c86c:	e5923018 	ldr	r3, [r2, #24]
    c870:	e3130101 	tst	r3, #1073741824	; 0x40000000
    c874:	1afffffc 	bne	c86c <mailbox_read+0x1c>
    c878:	e5923000 	ldr	r3, [r2]
    c87c:	e203100f 	and	r1, r3, #15
    c880:	e1510000 	cmp	r1, r0
    c884:	1afffff8 	bne	c86c <mailbox_read+0x1c>
    c888:	e3c3000f 	bic	r0, r3, #15
    c88c:	e12fff1e 	bx	lr
    c890:	e30d0ead 	movw	r0, #57005	; 0xdead
    c894:	e34f0eed 	movt	r0, #65261	; 0xfeed
    c898:	e12fff1e 	bx	lr

0000c89c <mailbox_tag_message>:
    c89c:	e92d000e 	push	{r1, r2, r3}
    c8a0:	e3a02000 	mov	r2, #0
    c8a4:	e92d4070 	push	{r4, r5, r6, lr}
    c8a8:	e1a04000 	mov	r4, r0
    c8ac:	e24dd094 	sub	sp, sp, #148	; 0x94
    c8b0:	e28d5017 	add	r5, sp, #23
    c8b4:	e3c5500f 	bic	r5, r5, #15
    c8b8:	e5dd60a4 	ldrb	r6, [sp, #164]	; 0xa4
    c8bc:	e2861002 	add	r1, r6, #2
    c8c0:	e2863003 	add	r3, r6, #3
    c8c4:	e3560000 	cmp	r6, #0
    c8c8:	e1a03103 	lsl	r3, r3, #2
    c8cc:	e5853000 	str	r3, [r5]
    c8d0:	e28d30a8 	add	r3, sp, #168	; 0xa8
    c8d4:	e7852101 	str	r2, [r5, r1, lsl #2]
    c8d8:	e58d3004 	str	r3, [sp, #4]
    c8dc:	e5852004 	str	r2, [r5, #4]
    c8e0:	0a000005 	beq	c8fc <mailbox_tag_message+0x60>
    c8e4:	e2852004 	add	r2, r5, #4
    c8e8:	e0830106 	add	r0, r3, r6, lsl #2
    c8ec:	e4931004 	ldr	r1, [r3], #4
    c8f0:	e5a21004 	str	r1, [r2, #4]!
    c8f4:	e1530000 	cmp	r3, r0
    c8f8:	1afffffb 	bne	c8ec <mailbox_tag_message+0x50>
    c8fc:	e1a00005 	mov	r0, r5
    c900:	ebffeed4 	bl	8458 <ARMaddrToGPUaddr>
    c904:	e30e3ebc 	movw	r3, #61116	; 0xeebc
    c908:	e3403000 	movt	r3, #0
    c90c:	e3c0000f 	bic	r0, r0, #15
    c910:	e3800008 	orr	r0, r0, #8
    c914:	e5931000 	ldr	r1, [r3]
    c918:	e2811b2e 	add	r1, r1, #47104	; 0xb800
    c91c:	e2811080 	add	r1, r1, #128	; 0x80
    c920:	e5913038 	ldr	r3, [r1, #56]	; 0x38
    c924:	e3530000 	cmp	r3, #0
    c928:	bafffffc 	blt	c920 <mailbox_tag_message+0x84>
    c92c:	e5810020 	str	r0, [r1, #32]
    c930:	e5913018 	ldr	r3, [r1, #24]
    c934:	e2133101 	ands	r3, r3, #1073741824	; 0x40000000
    c938:	1afffffc 	bne	c930 <mailbox_tag_message+0x94>
    c93c:	e5912000 	ldr	r2, [r1]
    c940:	e202200f 	and	r2, r2, #15
    c944:	e3520008 	cmp	r2, #8
    c948:	1afffff8 	bne	c930 <mailbox_tag_message+0x94>
    c94c:	e5952004 	ldr	r2, [r5, #4]
    c950:	e3520102 	cmp	r2, #-2147483648	; 0x80000000
    c954:	11a00003 	movne	r0, r3
    c958:	0a000003 	beq	c96c <mailbox_tag_message+0xd0>
    c95c:	e28dd094 	add	sp, sp, #148	; 0x94
    c960:	e8bd4070 	pop	{r4, r5, r6, lr}
    c964:	e28dd00c 	add	sp, sp, #12
    c968:	e12fff1e 	bx	lr
    c96c:	e3540000 	cmp	r4, #0
    c970:	0a000008 	beq	c998 <mailbox_tag_message+0xfc>
    c974:	e3560000 	cmp	r6, #0
    c978:	0a000006 	beq	c998 <mailbox_tag_message+0xfc>
    c97c:	e2444004 	sub	r4, r4, #4
    c980:	e2855004 	add	r5, r5, #4
    c984:	e0846106 	add	r6, r4, r6, lsl #2
    c988:	e5b53004 	ldr	r3, [r5, #4]!
    c98c:	e5a43004 	str	r3, [r4, #4]!
    c990:	e1540006 	cmp	r4, r6
    c994:	1afffffb 	bne	c988 <mailbox_tag_message+0xec>
    c998:	e3a00001 	mov	r0, #1
    c99c:	e28dd094 	add	sp, sp, #148	; 0x94
    c9a0:	e8bd4070 	pop	{r4, r5, r6, lr}
    c9a4:	e28dd00c 	add	sp, sp, #12
    c9a8:	e12fff1e 	bx	lr

0000c9ac <ClearTimerIrq>:
    c9ac:	e30e3ebc 	movw	r3, #61116	; 0xeebc
    c9b0:	e3403000 	movt	r3, #0
    c9b4:	e3a02001 	mov	r2, #1
    c9b8:	e5933000 	ldr	r3, [r3]
    c9bc:	e2833b2d 	add	r3, r3, #46080	; 0xb400
    c9c0:	e583200c 	str	r2, [r3, #12]
    c9c4:	e12fff1e 	bx	lr

0000c9c8 <TimerIrqSetup>:
    c9c8:	e92d41f0 	push	{r4, r5, r6, r7, r8, lr}
    c9cc:	e30e4ebc 	movw	r4, #61116	; 0xeebc
    c9d0:	e3404000 	movt	r4, #0
    c9d4:	f2c00010 	vmov.i32	d16, #0	; 0x00000000
    c9d8:	e24dd028 	sub	sp, sp, #40	; 0x28
    c9dc:	e1a08001 	mov	r8, r1
    c9e0:	e3a0e004 	mov	lr, #4
    c9e4:	e594c000 	ldr	ip, [r4]
    c9e8:	e3a03008 	mov	r3, #8
    c9ec:	e3a05000 	mov	r5, #0
    c9f0:	e1a07000 	mov	r7, r0
    c9f4:	e28ccb2d 	add	ip, ip, #46080	; 0xb400
    c9f8:	edcd0b07 	vstr	d16, [sp, #28]
    c9fc:	edcd0b05 	vstr	d16, [sp, #20]
    ca00:	e28d0014 	add	r0, sp, #20
    ca04:	edcd0b08 	vstr	d16, [sp, #32]
    ca08:	e3a02002 	mov	r2, #2
    ca0c:	e3402003 	movt	r2, #3
    ca10:	e59c1008 	ldr	r1, [ip, #8]
    ca14:	e7c7139f 	bfc	r1, #7, #1
    ca18:	e58c1008 	str	r1, [ip, #8]
    ca1c:	e58de004 	str	lr, [sp, #4]
    ca20:	e3a01005 	mov	r1, #5
    ca24:	e58d3000 	str	r3, [sp]
    ca28:	e58d5008 	str	r5, [sp, #8]
    ca2c:	ebfffde1 	bl	c1b8 <mailbox_tag_message.constprop.0>
    ca30:	e59d6024 	ldr	r6, [sp, #36]	; 0x24
    ca34:	e3043dd3 	movw	r3, #19923	; 0x4dd3
    ca38:	e3413062 	movt	r3, #4194	; 0x1062
    ca3c:	e1a00008 	mov	r0, r8
    ca40:	e0863693 	umull	r3, r6, r3, r6
    ca44:	e1a06226 	lsr	r6, r6, #4
    ca48:	e58d6024 	str	r6, [sp, #36]	; 0x24
    ca4c:	ebffee98 	bl	84b4 <setIrqFuncAddress>
    ca50:	e5944000 	ldr	r4, [r4]
    ca54:	e1a03000 	mov	r3, r0
    ca58:	e3042240 	movw	r2, #16960	; 0x4240
    ca5c:	e340200f 	movt	r2, #15
    ca60:	e284ecb2 	add	lr, r4, #45568	; 0xb200
    ca64:	e0876796 	umull	r6, r7, r6, r7
    ca68:	e2844b2d 	add	r4, r4, #46080	; 0xb400
    ca6c:	e59ec018 	ldr	ip, [lr, #24]
    ca70:	e1a00006 	mov	r0, r6
    ca74:	e1a01007 	mov	r1, r7
    ca78:	e1a06003 	mov	r6, r3
    ca7c:	e38cc001 	orr	ip, ip, #1
    ca80:	e3a03000 	mov	r3, #0
    ca84:	e58ec018 	str	ip, [lr, #24]
    ca88:	fa00043f 	blx	db8c <__aeabi_uldivmod>
    ca8c:	e5840000 	str	r0, [r4]
    ca90:	e1a00006 	mov	r0, r6
    ca94:	e5943008 	ldr	r3, [r4, #8]
    ca98:	e3833002 	orr	r3, r3, #2
    ca9c:	e5843008 	str	r3, [r4, #8]
    caa0:	e5d43008 	ldrb	r3, [r4, #8]
    caa4:	e7c33115 	bfi	r3, r5, #2, #2
    caa8:	e5c43008 	strb	r3, [r4, #8]
    caac:	e5943008 	ldr	r3, [r4, #8]
    cab0:	e3833020 	orr	r3, r3, #32
    cab4:	e5843008 	str	r3, [r4, #8]
    cab8:	e5943008 	ldr	r3, [r4, #8]
    cabc:	e3833080 	orr	r3, r3, #128	; 0x80
    cac0:	e5843008 	str	r3, [r4, #8]
    cac4:	e28dd028 	add	sp, sp, #40	; 0x28
    cac8:	e8bd81f0 	pop	{r4, r5, r6, r7, r8, pc}

0000cacc <set_Activity_LED>:
    cacc:	e92d40f0 	push	{r4, r5, r6, r7, lr}
    cad0:	e30e4f94 	movw	r4, #61332	; 0xef94
    cad4:	e3404000 	movt	r4, #0
    cad8:	e24dd024 	sub	sp, sp, #36	; 0x24
    cadc:	e1a05000 	mov	r5, r0
    cae0:	e5d4c000 	ldrb	ip, [r4]
    cae4:	e35c0000 	cmp	ip, #0
    cae8:	0a00000a 	beq	cb18 <set_Activity_LED+0x4c>
    caec:	e30e3f2c 	movw	r3, #61228	; 0xef2c
    caf0:	e3403000 	movt	r3, #0
    caf4:	e5d41001 	ldrb	r1, [r4, #1]
    caf8:	e5932000 	ldr	r2, [r3]
    cafc:	e3510000 	cmp	r1, #0
    cb00:	1a000048 	bne	cc28 <set_Activity_LED+0x15c>
    cb04:	e3520035 	cmp	r2, #53	; 0x35
    cb08:	9a00001f 	bls	cb8c <set_Activity_LED+0xc0>
    cb0c:	e1a0000c 	mov	r0, ip
    cb10:	e28dd024 	add	sp, sp, #36	; 0x24
    cb14:	e8bd80f0 	pop	{r4, r5, r6, r7, pc}
    cb18:	e3a03004 	mov	r3, #4
    cb1c:	e58dc004 	str	ip, [sp, #4]
    cb20:	e58dc000 	str	ip, [sp]
    cb24:	e1a01003 	mov	r1, r3
    cb28:	e3a02002 	mov	r2, #2
    cb2c:	e3402001 	movt	r2, #1
    cb30:	e28d0010 	add	r0, sp, #16
    cb34:	e1a0700c 	mov	r7, ip
    cb38:	e3a06001 	mov	r6, #1
    cb3c:	e5c46000 	strb	r6, [r4]
    cb40:	ebfffddb 	bl	c2b4 <mailbox_tag_message.constprop.1>
    cb44:	e250c000 	subs	ip, r0, #0
    cb48:	0affffef 	beq	cb0c <set_Activity_LED+0x40>
    cb4c:	e59d301c 	ldr	r3, [sp, #28]
    cb50:	e3c324ff 	bic	r2, r3, #-16777216	; 0xff000000
    cb54:	e58d201c 	str	r2, [sp, #28]
    cb58:	e2421002 	sub	r1, r2, #2
    cb5c:	e351000d 	cmp	r1, #13
    cb60:	9a00003c 	bls	cc58 <set_Activity_LED+0x18c>
    cb64:	e3021081 	movw	r1, #8321	; 0x2081
    cb68:	e34010a0 	movt	r1, #160	; 0xa0
    cb6c:	e1520001 	cmp	r2, r1
    cb70:	8a000016 	bhi	cbd0 <set_Activity_LED+0x104>
    cb74:	e30e3f2c 	movw	r3, #61228	; 0xef2c
    cb78:	e3403000 	movt	r3, #0
    cb7c:	e3a0102f 	mov	r1, #47	; 0x2f
    cb80:	e5c47001 	strb	r7, [r4, #1]
    cb84:	e1a02001 	mov	r2, r1
    cb88:	e5831000 	str	r1, [r3]
    cb8c:	e202301f 	and	r3, r2, #31
    cb90:	e3a01001 	mov	r1, #1
    cb94:	e1a022a2 	lsr	r2, r2, #5
    cb98:	e3550000 	cmp	r5, #0
    cb9c:	e1a01311 	lsl	r1, r1, r3
    cba0:	e30e3ebc 	movw	r3, #61116	; 0xeebc
    cba4:	e3403000 	movt	r3, #0
    cba8:	e3a0c001 	mov	ip, #1
    cbac:	e1a0000c 	mov	r0, ip
    cbb0:	e5933000 	ldr	r3, [r3]
    cbb4:	e0832102 	add	r2, r3, r2, lsl #2
    cbb8:	e2822602 	add	r2, r2, #2097152	; 0x200000
    cbbc:	1282201c 	addne	r2, r2, #28
    cbc0:	02822028 	addeq	r2, r2, #40	; 0x28
    cbc4:	e5821000 	str	r1, [r2]
    cbc8:	e28dd024 	add	sp, sp, #36	; 0x24
    cbcc:	e8bd80f0 	pop	{r4, r5, r6, r7, pc}
    cbd0:	e3c334ff 	bic	r3, r3, #-16777216	; 0xff000000
    cbd4:	e3020082 	movw	r0, #8322	; 0x2082
    cbd8:	e34000a0 	movt	r0, #160	; 0xa0
    cbdc:	e3c33802 	bic	r3, r3, #131072	; 0x20000
    cbe0:	e30210a0 	movw	r1, #8352	; 0x20a0
    cbe4:	e34010a0 	movt	r1, #160	; 0xa0
    cbe8:	e1520001 	cmp	r2, r1
    cbec:	11530000 	cmpne	r3, r0
    cbf0:	e3021082 	movw	r1, #8322	; 0x2082
    cbf4:	e34010a3 	movt	r1, #163	; 0xa3
    cbf8:	03a03001 	moveq	r3, #1
    cbfc:	13a03000 	movne	r3, #0
    cc00:	e1520001 	cmp	r2, r1
    cc04:	03833001 	orreq	r3, r3, #1
    cc08:	e3530000 	cmp	r3, #0
    cc0c:	0a000018 	beq	cc74 <set_Activity_LED+0x1a8>
    cc10:	e30e3f2c 	movw	r3, #61228	; 0xef2c
    cc14:	e3403000 	movt	r3, #0
    cc18:	e3a01082 	mov	r1, #130	; 0x82
    cc1c:	e5c46001 	strb	r6, [r4, #1]
    cc20:	e1a02001 	mov	r2, r1
    cc24:	e5831000 	str	r1, [r3]
    cc28:	e3a03008 	mov	r3, #8
    cc2c:	e98d0024 	stmib	sp, {r2, r5}
    cc30:	e3a01005 	mov	r1, #5
    cc34:	e58d3000 	str	r3, [sp]
    cc38:	e3a00000 	mov	r0, #0
    cc3c:	e3082041 	movw	r2, #32833	; 0x8041
    cc40:	e3402003 	movt	r2, #3
    cc44:	ebfffd5b 	bl	c1b8 <mailbox_tag_message.constprop.0>
    cc48:	e1a0c000 	mov	ip, r0
    cc4c:	e1a0000c 	mov	r0, ip
    cc50:	e28dd024 	add	sp, sp, #36	; 0x24
    cc54:	e8bd80f0 	pop	{r4, r5, r6, r7, pc}
    cc58:	e30e3f2c 	movw	r3, #61228	; 0xef2c
    cc5c:	e3403000 	movt	r3, #0
    cc60:	e3a01010 	mov	r1, #16
    cc64:	e5c47001 	strb	r7, [r4, #1]
    cc68:	e1a02001 	mov	r2, r1
    cc6c:	e5831000 	str	r1, [r3]
    cc70:	eaffffc5 	b	cb8c <set_Activity_LED+0xc0>
    cc74:	e30e1f2c 	movw	r1, #61228	; 0xef2c
    cc78:	e3401000 	movt	r1, #0
    cc7c:	e3a0001d 	mov	r0, #29
    cc80:	e5c43001 	strb	r3, [r4, #1]
    cc84:	e1a02000 	mov	r2, r0
    cc88:	e5810000 	str	r0, [r1]
    cc8c:	eaffffbe 	b	cb8c <set_Activity_LED+0xc0>

0000cc90 <ARM_setmaxspeed>:
    cc90:	e92d4070 	push	{r4, r5, r6, lr}
    cc94:	f2c00010 	vmov.i32	d16, #0	; 0x00000000
    cc98:	e3a04008 	mov	r4, #8
    cc9c:	e24dd028 	sub	sp, sp, #40	; 0x28
    cca0:	e3a02000 	mov	r2, #0
    cca4:	e1a05000 	mov	r5, r0
    cca8:	e1a03004 	mov	r3, r4
    ccac:	e28d0014 	add	r0, sp, #20
    ccb0:	e3a06003 	mov	r6, #3
    ccb4:	e58d2008 	str	r2, [sp, #8]
    ccb8:	e3a01005 	mov	r1, #5
    ccbc:	e3a02004 	mov	r2, #4
    ccc0:	e3402003 	movt	r2, #3
    ccc4:	e58d4000 	str	r4, [sp]
    ccc8:	e58d6004 	str	r6, [sp, #4]
    cccc:	edcd0b07 	vstr	d16, [sp, #28]
    ccd0:	edcd0b05 	vstr	d16, [sp, #20]
    ccd4:	edcd0b08 	vstr	d16, [sp, #32]
    ccd8:	ebfffd36 	bl	c1b8 <mailbox_tag_message.constprop.0>
    ccdc:	e3500000 	cmp	r0, #0
    cce0:	1a000003 	bne	ccf4 <ARM_setmaxspeed+0x64>
    cce4:	e3a04000 	mov	r4, #0
    cce8:	e1a00004 	mov	r0, r4
    ccec:	e28dd028 	add	sp, sp, #40	; 0x28
    ccf0:	e8bd8070 	pop	{r4, r5, r6, pc}
    ccf4:	e59d1024 	ldr	r1, [sp, #36]	; 0x24
    ccf8:	e1a03004 	mov	r3, r4
    ccfc:	e58d4000 	str	r4, [sp]
    cd00:	e28d0014 	add	r0, sp, #20
    cd04:	e58d1008 	str	r1, [sp, #8]
    cd08:	e3082002 	movw	r2, #32770	; 0x8002
    cd0c:	e3402003 	movt	r2, #3
    cd10:	e3a01005 	mov	r1, #5
    cd14:	e58d6004 	str	r6, [sp, #4]
    cd18:	ebfffd26 	bl	c1b8 <mailbox_tag_message.constprop.0>
    cd1c:	e2504000 	subs	r4, r0, #0
    cd20:	0affffef 	beq	cce4 <ARM_setmaxspeed+0x54>
    cd24:	e3550000 	cmp	r5, #0
    cd28:	0affffee 	beq	cce8 <ARM_setmaxspeed+0x58>
    cd2c:	e59d1024 	ldr	r1, [sp, #36]	; 0x24
    cd30:	e30d0e00 	movw	r0, #56832	; 0xde00
    cd34:	e3400000 	movt	r0, #0
    cd38:	e12fff35 	blx	r5
    cd3c:	eaffffe9 	b	cce8 <ARM_setmaxspeed+0x58>

0000cd40 <displaySmartStart>:
    cd40:	e92d4030 	push	{r4, r5, lr}
    cd44:	e2504000 	subs	r4, r0, #0
    cd48:	e24dd01c 	sub	sp, sp, #28
    cd4c:	0a000021 	beq	cdd8 <displaySmartStart+0x98>
    cd50:	e30e2ed4 	movw	r2, #61140	; 0xeed4
    cd54:	e3402000 	movt	r2, #0
    cd58:	e30eced0 	movw	ip, #61136	; 0xeed0
    cd5c:	e340c000 	movt	ip, #0
    cd60:	e30eeec8 	movw	lr, #61128	; 0xeec8
    cd64:	e340e000 	movt	lr, #0
    cd68:	e5d20000 	ldrb	r0, [r2]
    cd6c:	e30d3e1c 	movw	r3, #56860	; 0xde1c
    cd70:	e3403000 	movt	r3, #0
    cd74:	e1d250d3 	ldrsb	r5, [r2, #3]
    cd78:	e30e1edc 	movw	r1, #61148	; 0xeedc
    cd7c:	e3401000 	movt	r1, #0
    cd80:	e3550000 	cmp	r5, #0
    cd84:	e1dcc0b0 	ldrh	ip, [ip]
    cd88:	e59ee000 	ldr	lr, [lr]
    cd8c:	e30d2e24 	movw	r2, #56868	; 0xde24
    cd90:	e3402000 	movt	r2, #0
    cd94:	b1a02003 	movlt	r2, r3
    cd98:	e7e03250 	ubfx	r3, r0, #4, #1
    cd9c:	e58d2010 	str	r2, [sp, #16]
    cda0:	e2833001 	add	r3, r3, #1
    cda4:	e200000f 	and	r0, r0, #15
    cda8:	e1d120b0 	ldrh	r2, [r1]
    cdac:	e1a0c22c 	lsr	ip, ip, #4
    cdb0:	e1a03283 	lsl	r3, r3, #5
    cdb4:	e58dc008 	str	ip, [sp, #8]
    cdb8:	e88d0009 	stm	sp, {r0, r3}
    cdbc:	e30d0e2c 	movw	r0, #56876	; 0xde2c
    cdc0:	e3400000 	movt	r0, #0
    cdc4:	e58de00c 	str	lr, [sp, #12]
    cdc8:	e6ef3072 	uxtb	r3, r2
    cdcc:	e1a02422 	lsr	r2, r2, #8
    cdd0:	e5d11002 	ldrb	r1, [r1, #2]
    cdd4:	e12fff34 	blx	r4
    cdd8:	e28dd01c 	add	sp, sp, #28
    cddc:	e8bd8030 	pop	{r4, r5, pc}

0000cde0 <Embedded_Console_WriteChar>:
    cde0:	e350000a 	cmp	r0, #10
    cde4:	0a000014 	beq	ce3c <Embedded_Console_WriteChar+0x5c>
    cde8:	e350000d 	cmp	r0, #13
    cdec:	0a000025 	beq	ce88 <Embedded_Console_WriteChar+0xa8>
    cdf0:	e3500009 	cmp	r0, #9
    cdf4:	0a000018 	beq	ce5c <Embedded_Console_WriteChar+0x7c>
    cdf8:	e92d4070 	push	{r4, r5, r6, lr}
    cdfc:	e30e4f94 	movw	r4, #61332	; 0xef94
    ce00:	e3404000 	movt	r4, #0
    ce04:	e1a01000 	mov	r1, r0
    ce08:	e2840004 	add	r0, r4, #4
    ce0c:	e5942020 	ldr	r2, [r4, #32]
    ce10:	e5943024 	ldr	r3, [r4, #36]	; 0x24
    ce14:	e5945044 	ldr	r5, [r4, #68]	; 0x44
    ce18:	e1a02182 	lsl	r2, r2, #3
    ce1c:	e5842018 	str	r2, [r4, #24]
    ce20:	e1a03203 	lsl	r3, r3, #4
    ce24:	e584301c 	str	r3, [r4, #28]
    ce28:	e12fff35 	blx	r5
    ce2c:	e5943020 	ldr	r3, [r4, #32]
    ce30:	e2833001 	add	r3, r3, #1
    ce34:	e5843020 	str	r3, [r4, #32]
    ce38:	e8bd8070 	pop	{r4, r5, r6, pc}
    ce3c:	e30e3f94 	movw	r3, #61332	; 0xef94
    ce40:	e3403000 	movt	r3, #0
    ce44:	e3a01000 	mov	r1, #0
    ce48:	e5932024 	ldr	r2, [r3, #36]	; 0x24
    ce4c:	e5831020 	str	r1, [r3, #32]
    ce50:	e2822001 	add	r2, r2, #1
    ce54:	e5832024 	str	r2, [r3, #36]	; 0x24
    ce58:	e12fff1e 	bx	lr
    ce5c:	e30e2f94 	movw	r2, #61332	; 0xef94
    ce60:	e3402000 	movt	r2, #0
    ce64:	e5923020 	ldr	r3, [r2, #32]
    ce68:	e2833005 	add	r3, r3, #5
    ce6c:	e2730000 	rsbs	r0, r3, #0
    ce70:	e2031003 	and	r1, r3, #3
    ce74:	e2000003 	and	r0, r0, #3
    ce78:	52601000 	rsbpl	r1, r0, #0
    ce7c:	e0433001 	sub	r3, r3, r1
    ce80:	e5823020 	str	r3, [r2, #32]
    ce84:	e12fff1e 	bx	lr
    ce88:	e30e3f94 	movw	r3, #61332	; 0xef94
    ce8c:	e3403000 	movt	r3, #0
    ce90:	e3a02000 	mov	r2, #0
    ce94:	e5832020 	str	r2, [r3, #32]
    ce98:	e12fff1e 	bx	lr

0000ce9c <WriteText>:
    ce9c:	e92d47f0 	push	{r4, r5, r6, r7, r8, r9, sl, lr}
    cea0:	e2524000 	subs	r4, r2, #0
    cea4:	08bd87f0 	popeq	{r4, r5, r6, r7, r8, r9, sl, pc}
    cea8:	e30e6f94 	movw	r6, #61332	; 0xef94
    ceac:	e3406000 	movt	r6, #0
    ceb0:	e1a03000 	mov	r3, r0
    ceb4:	e1a00004 	mov	r0, r4
    ceb8:	e5863020 	str	r3, [r6, #32]
    cebc:	e5861024 	str	r1, [r6, #36]	; 0x24
    cec0:	fa0002f2 	blx	da90 <strlen>
    cec4:	e3500000 	cmp	r0, #0
    cec8:	08bd87f0 	popeq	{r4, r5, r6, r7, r8, r9, sl, pc}
    cecc:	e2444001 	sub	r4, r4, #1
    ced0:	e3a08000 	mov	r8, #0
    ced4:	e0845000 	add	r5, r4, r0
    ced8:	e2867004 	add	r7, r6, #4
    cedc:	ea00000c 	b	cf14 <WriteText+0x78>
    cee0:	e5962020 	ldr	r2, [r6, #32]
    cee4:	e5963024 	ldr	r3, [r6, #36]	; 0x24
    cee8:	e5969044 	ldr	r9, [r6, #68]	; 0x44
    ceec:	e1a02182 	lsl	r2, r2, #3
    cef0:	e5862018 	str	r2, [r6, #24]
    cef4:	e1a03203 	lsl	r3, r3, #4
    cef8:	e586301c 	str	r3, [r6, #28]
    cefc:	e12fff39 	blx	r9
    cf00:	e5963020 	ldr	r3, [r6, #32]
    cf04:	e2833001 	add	r3, r3, #1
    cf08:	e5863020 	str	r3, [r6, #32]
    cf0c:	e1540005 	cmp	r4, r5
    cf10:	08bd87f0 	popeq	{r4, r5, r6, r7, r8, r9, sl, pc}
    cf14:	e5f43001 	ldrb	r3, [r4, #1]!
    cf18:	e353000a 	cmp	r3, #10
    cf1c:	0a000011 	beq	cf68 <WriteText+0xcc>
    cf20:	e353000d 	cmp	r3, #13
    cf24:	e1a01003 	mov	r1, r3
    cf28:	e1a00007 	mov	r0, r7
    cf2c:	05868020 	streq	r8, [r6, #32]
    cf30:	0afffff5 	beq	cf0c <WriteText+0x70>
    cf34:	e3530009 	cmp	r3, #9
    cf38:	1affffe8 	bne	cee0 <WriteText+0x44>
    cf3c:	e5963020 	ldr	r3, [r6, #32]
    cf40:	e2833005 	add	r3, r3, #5
    cf44:	e2731000 	rsbs	r1, r3, #0
    cf48:	e2032003 	and	r2, r3, #3
    cf4c:	e2011003 	and	r1, r1, #3
    cf50:	52612000 	rsbpl	r2, r1, #0
    cf54:	e1540005 	cmp	r4, r5
    cf58:	e0433002 	sub	r3, r3, r2
    cf5c:	e5863020 	str	r3, [r6, #32]
    cf60:	1affffeb 	bne	cf14 <WriteText+0x78>
    cf64:	e8bd87f0 	pop	{r4, r5, r6, r7, r8, r9, sl, pc}
    cf68:	e5963024 	ldr	r3, [r6, #36]	; 0x24
    cf6c:	e1540005 	cmp	r4, r5
    cf70:	e5868020 	str	r8, [r6, #32]
    cf74:	e2833001 	add	r3, r3, #1
    cf78:	e5863024 	str	r3, [r6, #36]	; 0x24
    cf7c:	1affffe4 	bne	cf14 <WriteText+0x78>
    cf80:	e8bd87f0 	pop	{r4, r5, r6, r7, r8, r9, sl, pc}

0000cf84 <SetDCPenColor>:
    cf84:	e3500000 	cmp	r0, #0
    cf88:	11a03000 	movne	r3, r0
    cf8c:	15900024 	ldrne	r0, [r0, #36]	; 0x24
    cf90:	15831024 	strne	r1, [r3, #36]	; 0x24
    cf94:	e12fff1e 	bx	lr

0000cf98 <SetDCBrushColor>:
    cf98:	e3500000 	cmp	r0, #0
    cf9c:	11a03000 	movne	r3, r0
    cfa0:	1590002c 	ldrne	r0, [r0, #44]	; 0x2c
    cfa4:	1583102c 	strne	r1, [r3, #44]	; 0x2c
    cfa8:	e12fff1e 	bx	lr

0000cfac <MoveToEx>:
    cfac:	e250c000 	subs	ip, r0, #0
    cfb0:	1a000001 	bne	cfbc <MoveToEx+0x10>
    cfb4:	e1a0000c 	mov	r0, ip
    cfb8:	e12fff1e 	bx	lr
    cfbc:	e3530000 	cmp	r3, #0
    cfc0:	e52de004 	push	{lr}		; (str lr, [sp, #-4]!)
    cfc4:	e1a0e001 	mov	lr, r1
    cfc8:	159c0014 	ldrne	r0, [ip, #20]
    cfcc:	159c1018 	ldrne	r1, [ip, #24]
    cfd0:	18830003 	stmne	r3, {r0, r1}
    cfd4:	e3a00001 	mov	r0, #1
    cfd8:	e58ce014 	str	lr, [ip, #20]
    cfdc:	e58c2018 	str	r2, [ip, #24]
    cfe0:	e49df004 	pop	{pc}		; (ldr pc, [sp], #4)

0000cfe4 <LineTo>:
    cfe4:	e3500000 	cmp	r0, #0
    cfe8:	012fff1e 	bxeq	lr
    cfec:	e590c014 	ldr	ip, [r0, #20]
    cff0:	e92d4010 	push	{r4, lr}
    cff4:	e5903018 	ldr	r3, [r0, #24]
    cff8:	e24dd008 	sub	sp, sp, #8
    cffc:	e15c0001 	cmp	ip, r1
    d000:	ca00000d 	bgt	d03c <LineTo+0x58>
    d004:	e041c00c 	sub	ip, r1, ip
    d008:	e1530002 	cmp	r3, r2
    d00c:	da000017 	ble	d070 <LineTo+0x8c>
    d010:	e35c0000 	cmp	ip, #0
    d014:	e0431002 	sub	r1, r3, r2
    d018:	13a03001 	movne	r3, #1
    d01c:	13e02000 	mvnne	r2, #0
    d020:	1a00000b 	bne	d054 <LineTo+0x70>
    d024:	e3e02000 	mvn	r2, #0
    d028:	e5903034 	ldr	r3, [r0, #52]	; 0x34
    d02c:	e12fff33 	blx	r3
    d030:	e3a00001 	mov	r0, #1
    d034:	e28dd008 	add	sp, sp, #8
    d038:	e8bd8010 	pop	{r4, pc}
    d03c:	e04cc001 	sub	ip, ip, r1
    d040:	e1520003 	cmp	r2, r3
    d044:	aa00000e 	bge	d084 <LineTo+0xa0>
    d048:	e0431002 	sub	r1, r3, r2
    d04c:	e3e03000 	mvn	r3, #0
    d050:	e1a02003 	mov	r2, r3
    d054:	e58d2000 	str	r2, [sp]
    d058:	e1a02001 	mov	r2, r1
    d05c:	e1a0100c 	mov	r1, ip
    d060:	e590403c 	ldr	r4, [r0, #60]	; 0x3c
    d064:	e12fff34 	blx	r4
    d068:	e3a00001 	mov	r0, #1
    d06c:	eafffff0 	b	d034 <LineTo+0x50>
    d070:	e0421003 	sub	r1, r2, r3
    d074:	e35c0000 	cmp	ip, #0
    d078:	1a00000b 	bne	d0ac <LineTo+0xc8>
    d07c:	e3a02001 	mov	r2, #1
    d080:	eaffffe8 	b	d028 <LineTo+0x44>
    d084:	e0421003 	sub	r1, r2, r3
    d088:	e3e03000 	mvn	r3, #0
    d08c:	e3510000 	cmp	r1, #0
    d090:	1a000007 	bne	d0b4 <LineTo+0xd0>
    d094:	e1a02003 	mov	r2, r3
    d098:	e1a0100c 	mov	r1, ip
    d09c:	e5903038 	ldr	r3, [r0, #56]	; 0x38
    d0a0:	e12fff33 	blx	r3
    d0a4:	e3a00001 	mov	r0, #1
    d0a8:	eaffffe1 	b	d034 <LineTo+0x50>
    d0ac:	e3a03001 	mov	r3, #1
    d0b0:	eafffff5 	b	d08c <LineTo+0xa8>
    d0b4:	e3a02001 	mov	r2, #1
    d0b8:	eaffffe5 	b	d054 <LineTo+0x70>

0000d0bc <TextOut>:
    d0bc:	e92d47f0 	push	{r4, r5, r6, r7, r8, r9, sl, lr}
    d0c0:	e2530000 	subs	r0, r3, #0
    d0c4:	e59d8020 	ldr	r8, [sp, #32]
    d0c8:	13a00001 	movne	r0, #1
    d0cc:	e3580000 	cmp	r8, #0
    d0d0:	03a00000 	moveq	r0, #0
    d0d4:	e3500000 	cmp	r0, #0
    d0d8:	08bd87f0 	popeq	{r4, r5, r6, r7, r8, r9, sl, pc}
    d0dc:	e3580000 	cmp	r8, #0
    d0e0:	da00000f 	ble	d124 <TextOut+0x68>
    d0e4:	e30e6f94 	movw	r6, #61332	; 0xef94
    d0e8:	e3406000 	movt	r6, #0
    d0ec:	e1a04001 	mov	r4, r1
    d0f0:	e1a07002 	mov	r7, r2
    d0f4:	e2435001 	sub	r5, r3, #1
    d0f8:	e0818188 	add	r8, r1, r8, lsl #3
    d0fc:	e2869004 	add	r9, r6, #4
    d100:	e5864018 	str	r4, [r6, #24]
    d104:	e1a00009 	mov	r0, r9
    d108:	e586701c 	str	r7, [r6, #28]
    d10c:	e2844008 	add	r4, r4, #8
    d110:	e5963044 	ldr	r3, [r6, #68]	; 0x44
    d114:	e5f51001 	ldrb	r1, [r5, #1]!
    d118:	e12fff33 	blx	r3
    d11c:	e1540008 	cmp	r4, r8
    d120:	1afffff6 	bne	d100 <TextOut+0x44>
    d124:	e3a00001 	mov	r0, #1
    d128:	e8bd87f0 	pop	{r4, r5, r6, r7, r8, r9, sl, pc}

0000d12c <TransparentTextOut>:
    d12c:	e92d41f0 	push	{r4, r5, r6, r7, r8, lr}
    d130:	e2524000 	subs	r4, r2, #0
    d134:	0a000013 	beq	d188 <TransparentTextOut+0x5c>
    d138:	e5d43000 	ldrb	r3, [r4]
    d13c:	e3530000 	cmp	r3, #0
    d140:	0a00000e 	beq	d180 <TransparentTextOut+0x54>
    d144:	e30e6f94 	movw	r6, #61332	; 0xef94
    d148:	e3406000 	movt	r6, #0
    d14c:	e1a05000 	mov	r5, r0
    d150:	e1a07001 	mov	r7, r1
    d154:	e2868004 	add	r8, r6, #4
    d158:	e5865018 	str	r5, [r6, #24]
    d15c:	e1a00008 	mov	r0, r8
    d160:	e586701c 	str	r7, [r6, #28]
    d164:	e2855008 	add	r5, r5, #8
    d168:	e5963048 	ldr	r3, [r6, #72]	; 0x48
    d16c:	e4d41001 	ldrb	r1, [r4], #1
    d170:	e12fff33 	blx	r3
    d174:	e5d43000 	ldrb	r3, [r4]
    d178:	e3530000 	cmp	r3, #0
    d17c:	1afffff5 	bne	d158 <TransparentTextOut+0x2c>
    d180:	e3a00001 	mov	r0, #1
    d184:	e8bd81f0 	pop	{r4, r5, r6, r7, r8, pc}
    d188:	e1a00004 	mov	r0, r4
    d18c:	e8bd81f0 	pop	{r4, r5, r6, r7, r8, pc}

0000d190 <BmpOut>:
    d190:	e250c000 	subs	ip, r0, #0
    d194:	1a000001 	bne	d1a0 <BmpOut+0x10>
    d198:	e1a0000c 	mov	r0, ip
    d19c:	e12fff1e 	bx	lr
    d1a0:	e92d4030 	push	{r4, r5, lr}
    d1a4:	e3a04001 	mov	r4, #1
    d1a8:	e24dd00c 	sub	sp, sp, #12
    d1ac:	e58c1014 	str	r1, [ip, #20]
    d1b0:	e1a01003 	mov	r1, r3
    d1b4:	e59de018 	ldr	lr, [sp, #24]
    d1b8:	e59d301c 	ldr	r3, [sp, #28]
    d1bc:	e082200e 	add	r2, r2, lr
    d1c0:	e58c2018 	str	r2, [ip, #24]
    d1c4:	e58d4000 	str	r4, [sp]
    d1c8:	e1a0200e 	mov	r2, lr
    d1cc:	e59c5048 	ldr	r5, [ip, #72]	; 0x48
    d1d0:	e12fff35 	blx	r5
    d1d4:	e1a00004 	mov	r0, r4
    d1d8:	e28dd00c 	add	sp, sp, #12
    d1dc:	e8bd8030 	pop	{r4, r5, pc}

0000d1e0 <CvtBmpLine>:
    d1e0:	e92d43f0 	push	{r4, r5, r6, r7, r8, r9, lr}
    d1e4:	e1a0e001 	mov	lr, r1
    d1e8:	e1a01003 	mov	r1, r3
    d1ec:	e24dda01 	sub	sp, sp, #4096	; 0x1000
    d1f0:	e3500000 	cmp	r0, #0
    d1f4:	e24dd00c 	sub	sp, sp, #12
    d1f8:	e28d3a01 	add	r3, sp, #4096	; 0x1000
    d1fc:	e283302c 	add	r3, r3, #44	; 0x2c
    d200:	e593c000 	ldr	ip, [r3]
    d204:	1a000002 	bne	d214 <CvtBmpLine+0x34>
    d208:	e28dda01 	add	sp, sp, #4096	; 0x1000
    d20c:	e28dd00c 	add	sp, sp, #12
    d210:	e8bd83f0 	pop	{r4, r5, r6, r7, r8, r9, pc}
    d214:	e5802018 	str	r2, [r0, #24]
    d218:	e28d2a01 	add	r2, sp, #4096	; 0x1000
    d21c:	e2822028 	add	r2, r2, #40	; 0x28
    d220:	e590300c 	ldr	r3, [r0, #12]
    d224:	e580e014 	str	lr, [r0, #20]
    d228:	e5922000 	ldr	r2, [r2]
    d22c:	e1530002 	cmp	r3, r2
    d230:	0a000005 	beq	d24c <CvtBmpLine+0x6c>
    d234:	e3530018 	cmp	r3, #24
    d238:	0a000054 	beq	d390 <CvtBmpLine+0x1b0>
    d23c:	e3530020 	cmp	r3, #32
    d240:	0a00003d 	beq	d33c <CvtBmpLine+0x15c>
    d244:	e3530010 	cmp	r3, #16
    d248:	0a000009 	beq	d274 <CvtBmpLine+0x94>
    d24c:	e3a04001 	mov	r4, #1
    d250:	e58d4000 	str	r4, [sp]
    d254:	e28d3008 	add	r3, sp, #8
    d258:	e1a02004 	mov	r2, r4
    d25c:	e5905048 	ldr	r5, [r0, #72]	; 0x48
    d260:	e12fff35 	blx	r5
    d264:	e1a00004 	mov	r0, r4
    d268:	e28dda01 	add	sp, sp, #4096	; 0x1000
    d26c:	e28dd00c 	add	sp, sp, #12
    d270:	e8bd83f0 	pop	{r4, r5, r6, r7, r8, r9, pc}
    d274:	e3520018 	cmp	r2, #24
    d278:	0a000058 	beq	d3e0 <CvtBmpLine+0x200>
    d27c:	e3510000 	cmp	r1, #0
    d280:	13a02000 	movne	r2, #0
    d284:	128d4008 	addne	r4, sp, #8
    d288:	0affffef 	beq	d24c <CvtBmpLine+0x6c>
    d28c:	e7dce102 	ldrb	lr, [ip, r2, lsl #2]
    d290:	e1a03004 	mov	r3, r4
    d294:	e5d46000 	ldrb	r6, [r4]
    d298:	e1a05002 	mov	r5, r2
    d29c:	e2822001 	add	r2, r2, #1
    d2a0:	e2844002 	add	r4, r4, #2
    d2a4:	e1a0e1ae 	lsr	lr, lr, #3
    d2a8:	e1510002 	cmp	r1, r2
    d2ac:	e7c4601e 	bfi	r6, lr, #0, #5
    d2b0:	e5c36000 	strb	r6, [r3]
    d2b4:	1afffff4 	bne	d28c <CvtBmpLine+0xac>
    d2b8:	e3a04000 	mov	r4, #0
    d2bc:	e28d6008 	add	r6, sp, #8
    d2c0:	e28c7001 	add	r7, ip, #1
    d2c4:	e7d72104 	ldrb	r2, [r7, r4, lsl #2]
    d2c8:	e1a03006 	mov	r3, r6
    d2cc:	e5d6e000 	ldrb	lr, [r6]
    d2d0:	e1550004 	cmp	r5, r4
    d2d4:	e2866002 	add	r6, r6, #2
    d2d8:	e2844001 	add	r4, r4, #1
    d2dc:	e1a08122 	lsr	r8, r2, #2
    d2e0:	e5d32001 	ldrb	r2, [r3, #1]
    d2e4:	e2089007 	and	r9, r8, #7
    d2e8:	e20ee01f 	and	lr, lr, #31
    d2ec:	e3c22007 	bic	r2, r2, #7
    d2f0:	e18ee289 	orr	lr, lr, r9, lsl #5
    d2f4:	e18221a8 	orr	r2, r2, r8, lsr #3
    d2f8:	e5c3e000 	strb	lr, [r3]
    d2fc:	e5c32001 	strb	r2, [r3, #1]
    d300:	1affffef 	bne	d2c4 <CvtBmpLine+0xe4>
    d304:	e28cc002 	add	ip, ip, #2
    d308:	e3a02000 	mov	r2, #0
    d30c:	e28d4008 	add	r4, sp, #8
    d310:	e7dce102 	ldrb	lr, [ip, r2, lsl #2]
    d314:	e1a03004 	mov	r3, r4
    d318:	e5d46001 	ldrb	r6, [r4, #1]
    d31c:	e1520005 	cmp	r2, r5
    d320:	e2844002 	add	r4, r4, #2
    d324:	e2822001 	add	r2, r2, #1
    d328:	e1a0e1ae 	lsr	lr, lr, #3
    d32c:	e7c7619e 	bfi	r6, lr, #3, #5
    d330:	e5c36001 	strb	r6, [r3, #1]
    d334:	1afffff5 	bne	d310 <CvtBmpLine+0x130>
    d338:	eaffffc3 	b	d24c <CvtBmpLine+0x6c>
    d33c:	e28d3a01 	add	r3, sp, #4096	; 0x1000
    d340:	e2833028 	add	r3, r3, #40	; 0x28
    d344:	e5933000 	ldr	r3, [r3]
    d348:	e3530010 	cmp	r3, #16
    d34c:	0a000074 	beq	d524 <CvtBmpLine+0x344>
    d350:	e3510000 	cmp	r1, #0
    d354:	0affffbc 	beq	d24c <CvtBmpLine+0x6c>
    d358:	e0812081 	add	r2, r1, r1, lsl #1
    d35c:	e1a0300c 	mov	r3, ip
    d360:	e08cc002 	add	ip, ip, r2
    d364:	e28d2008 	add	r2, sp, #8
    d368:	e5d3e000 	ldrb	lr, [r3]
    d36c:	e2833003 	add	r3, r3, #3
    d370:	e4c2e004 	strb	lr, [r2], #4
    d374:	e153000c 	cmp	r3, ip
    d378:	e5534002 	ldrb	r4, [r3, #-2]
    d37c:	e553e001 	ldrb	lr, [r3, #-1]
    d380:	e5424003 	strb	r4, [r2, #-3]
    d384:	e542e002 	strb	lr, [r2, #-2]
    d388:	1afffff6 	bne	d368 <CvtBmpLine+0x188>
    d38c:	eaffffae 	b	d24c <CvtBmpLine+0x6c>
    d390:	e28d3a01 	add	r3, sp, #4096	; 0x1000
    d394:	e2833028 	add	r3, r3, #40	; 0x28
    d398:	e5933000 	ldr	r3, [r3]
    d39c:	e3530010 	cmp	r3, #16
    d3a0:	0a00003b 	beq	d494 <CvtBmpLine+0x2b4>
    d3a4:	e3510000 	cmp	r1, #0
    d3a8:	0affffa7 	beq	d24c <CvtBmpLine+0x6c>
    d3ac:	e0814081 	add	r4, r1, r1, lsl #1
    d3b0:	e28d3008 	add	r3, sp, #8
    d3b4:	e0834004 	add	r4, r3, r4
    d3b8:	e5dc2000 	ldrb	r2, [ip]
    d3bc:	e28cc004 	add	ip, ip, #4
    d3c0:	e4c32003 	strb	r2, [r3], #3
    d3c4:	e55ce003 	ldrb	lr, [ip, #-3]
    d3c8:	e55c2002 	ldrb	r2, [ip, #-2]
    d3cc:	e1530004 	cmp	r3, r4
    d3d0:	e543e002 	strb	lr, [r3, #-2]
    d3d4:	e5432001 	strb	r2, [r3, #-1]
    d3d8:	1afffff6 	bne	d3b8 <CvtBmpLine+0x1d8>
    d3dc:	eaffff9a 	b	d24c <CvtBmpLine+0x6c>
    d3e0:	e3510000 	cmp	r1, #0
    d3e4:	0affff98 	beq	d24c <CvtBmpLine+0x6c>
    d3e8:	e0815081 	add	r5, r1, r1, lsl #1
    d3ec:	e1a0400c 	mov	r4, ip
    d3f0:	e08c5005 	add	r5, ip, r5
    d3f4:	e28de008 	add	lr, sp, #8
    d3f8:	e4d42003 	ldrb	r2, [r4], #3
    d3fc:	e1a0300e 	mov	r3, lr
    d400:	e5de6000 	ldrb	r6, [lr]
    d404:	e28ee002 	add	lr, lr, #2
    d408:	e1550004 	cmp	r5, r4
    d40c:	e1a021a2 	lsr	r2, r2, #3
    d410:	e7c46012 	bfi	r6, r2, #0, #5
    d414:	e5c36000 	strb	r6, [r3]
    d418:	1afffff6 	bne	d3f8 <CvtBmpLine+0x218>
    d41c:	e1a0600c 	mov	r6, ip
    d420:	e28d7008 	add	r7, sp, #8
    d424:	e1a03007 	mov	r3, r7
    d428:	e5d64001 	ldrb	r4, [r6, #1]
    d42c:	e5d72000 	ldrb	r2, [r7]
    d430:	e2866003 	add	r6, r6, #3
    d434:	e1550006 	cmp	r5, r6
    d438:	e2877002 	add	r7, r7, #2
    d43c:	e5d3e001 	ldrb	lr, [r3, #1]
    d440:	e1a04124 	lsr	r4, r4, #2
    d444:	e2048007 	and	r8, r4, #7
    d448:	e202201f 	and	r2, r2, #31
    d44c:	e3cee007 	bic	lr, lr, #7
    d450:	e18ee1a4 	orr	lr, lr, r4, lsr #3
    d454:	e1822288 	orr	r2, r2, r8, lsl #5
    d458:	e5c3e001 	strb	lr, [r3, #1]
    d45c:	e5c32000 	strb	r2, [r3]
    d460:	1affffef 	bne	d424 <CvtBmpLine+0x244>
    d464:	e28de008 	add	lr, sp, #8
    d468:	e5dc2002 	ldrb	r2, [ip, #2]
    d46c:	e1a0300e 	mov	r3, lr
    d470:	e5de4001 	ldrb	r4, [lr, #1]
    d474:	e28cc003 	add	ip, ip, #3
    d478:	e155000c 	cmp	r5, ip
    d47c:	e28ee002 	add	lr, lr, #2
    d480:	e1a021a2 	lsr	r2, r2, #3
    d484:	e7c74192 	bfi	r4, r2, #3, #5
    d488:	e5c34001 	strb	r4, [r3, #1]
    d48c:	1afffff5 	bne	d468 <CvtBmpLine+0x288>
    d490:	eaffff6d 	b	d24c <CvtBmpLine+0x6c>
    d494:	e3510000 	cmp	r1, #0
    d498:	0affff6b 	beq	d24c <CvtBmpLine+0x6c>
    d49c:	e28d3008 	add	r3, sp, #8
    d4a0:	e0814081 	add	r4, r1, r1, lsl #1
    d4a4:	e1a0e00c 	mov	lr, ip
    d4a8:	e0834004 	add	r4, r3, r4
    d4ac:	e1a02003 	mov	r2, r3
    d4b0:	e5de3000 	ldrb	r3, [lr]
    d4b4:	e28ee002 	add	lr, lr, #2
    d4b8:	e1a03183 	lsl	r3, r3, #3
    d4bc:	e4c23003 	strb	r3, [r2], #3
    d4c0:	e1520004 	cmp	r2, r4
    d4c4:	1afffff9 	bne	d4b0 <CvtBmpLine+0x2d0>
    d4c8:	e1a0500c 	mov	r5, ip
    d4cc:	e28de008 	add	lr, sp, #8
    d4d0:	e1a02005 	mov	r2, r5
    d4d4:	e5d53001 	ldrb	r3, [r5, #1]
    d4d8:	e28ee003 	add	lr, lr, #3
    d4dc:	e2855002 	add	r5, r5, #2
    d4e0:	e2033007 	and	r3, r3, #7
    d4e4:	e15e0004 	cmp	lr, r4
    d4e8:	e5d22000 	ldrb	r2, [r2]
    d4ec:	e1a03183 	lsl	r3, r3, #3
    d4f0:	e18332a2 	orr	r3, r3, r2, lsr #5
    d4f4:	e1a03103 	lsl	r3, r3, #2
    d4f8:	e54e3002 	strb	r3, [lr, #-2]
    d4fc:	1afffff3 	bne	d4d0 <CvtBmpLine+0x2f0>
    d500:	e28d3008 	add	r3, sp, #8
    d504:	e2833003 	add	r3, r3, #3
    d508:	e5dc2001 	ldrb	r2, [ip, #1]
    d50c:	e1530004 	cmp	r3, r4
    d510:	e28cc002 	add	ip, ip, #2
    d514:	e20220f8 	and	r2, r2, #248	; 0xf8
    d518:	e5432001 	strb	r2, [r3, #-1]
    d51c:	1afffff8 	bne	d504 <CvtBmpLine+0x324>
    d520:	eaffff49 	b	d24c <CvtBmpLine+0x6c>
    d524:	e3510000 	cmp	r1, #0
    d528:	0affff47 	beq	d24c <CvtBmpLine+0x6c>
    d52c:	e1a0e00c 	mov	lr, ip
    d530:	e3a02000 	mov	r2, #0
    d534:	e28d4008 	add	r4, sp, #8
    d538:	e5de3000 	ldrb	r3, [lr]
    d53c:	e2822001 	add	r2, r2, #1
    d540:	e1520001 	cmp	r2, r1
    d544:	e28ee002 	add	lr, lr, #2
    d548:	e1a03183 	lsl	r3, r3, #3
    d54c:	e4c43004 	strb	r3, [r4], #4
    d550:	1afffff8 	bne	d538 <CvtBmpLine+0x358>
    d554:	e1a0400c 	mov	r4, ip
    d558:	e3a0e000 	mov	lr, #0
    d55c:	e1a02004 	mov	r2, r4
    d560:	e28d3008 	add	r3, sp, #8
    d564:	e083510e 	add	r5, r3, lr, lsl #2
    d568:	e5d43001 	ldrb	r3, [r4, #1]
    d56c:	e28ee001 	add	lr, lr, #1
    d570:	e2844002 	add	r4, r4, #2
    d574:	e5d22000 	ldrb	r2, [r2]
    d578:	e2033007 	and	r3, r3, #7
    d57c:	e15e0001 	cmp	lr, r1
    d580:	e1a03183 	lsl	r3, r3, #3
    d584:	e18332a2 	orr	r3, r3, r2, lsr #5
    d588:	e1a03103 	lsl	r3, r3, #2
    d58c:	e5c53001 	strb	r3, [r5, #1]
    d590:	1afffff1 	bne	d55c <CvtBmpLine+0x37c>
    d594:	e3a03000 	mov	r3, #0
    d598:	e28de008 	add	lr, sp, #8
    d59c:	e5dc2001 	ldrb	r2, [ip, #1]
    d5a0:	e08ee103 	add	lr, lr, r3, lsl #2
    d5a4:	e2833001 	add	r3, r3, #1
    d5a8:	e20220f8 	and	r2, r2, #248	; 0xf8
    d5ac:	e1510003 	cmp	r1, r3
    d5b0:	e28cc002 	add	ip, ip, #2
    d5b4:	e5ce2002 	strb	r2, [lr, #2]
    d5b8:	1afffff6 	bne	d598 <CvtBmpLine+0x3b8>
    d5bc:	eaffff22 	b	d24c <CvtBmpLine+0x6c>

0000d5c0 <Rectangle>:
    d5c0:	e250c000 	subs	ip, r0, #0
    d5c4:	1a000001 	bne	d5d0 <Rectangle+0x10>
    d5c8:	e1a0000c 	mov	r0, ip
    d5cc:	e12fff1e 	bx	lr
    d5d0:	e92d4010 	push	{r4, lr}
    d5d4:	e24dd008 	sub	sp, sp, #8
    d5d8:	e59de010 	ldr	lr, [sp, #16]
    d5dc:	e58de000 	str	lr, [sp]
    d5e0:	e59c4030 	ldr	r4, [ip, #48]	; 0x30
    d5e4:	e12fff34 	blx	r4
    d5e8:	e3a00001 	mov	r0, #1
    d5ec:	e28dd008 	add	sp, sp, #8
    d5f0:	e8bd8010 	pop	{r4, pc}

0000d5f4 <PiConsole_Init>:
    d5f4:	e92d43f0 	push	{r4, r5, r6, r7, r8, r9, lr}
    d5f8:	e3510000 	cmp	r1, #0
    d5fc:	13500000 	cmpne	r0, #0
    d600:	e1a05000 	mov	r5, r0
    d604:	e24dd0bc 	sub	sp, sp, #188	; 0xbc
    d608:	e1a06001 	mov	r6, r1
    d60c:	e28d705c 	add	r7, sp, #92	; 0x5c
    d610:	e1a04002 	mov	r4, r2
    d614:	e1a08003 	mov	r8, r3
    d618:	0a000059 	beq	d784 <PiConsole_Init+0x190>
    d61c:	e3540000 	cmp	r4, #0
    d620:	1a000009 	bne	d64c <PiConsole_Init+0x58>
    d624:	e3a03004 	mov	r3, #4
    d628:	e3a02005 	mov	r2, #5
    d62c:	e3402004 	movt	r2, #4
    d630:	e1a01003 	mov	r1, r3
    d634:	e1a00007 	mov	r0, r7
    d638:	e88d0018 	stm	sp, {r3, r4}
    d63c:	ebfffb1c 	bl	c2b4 <mailbox_tag_message.constprop.1>
    d640:	e3500000 	cmp	r0, #0
    d644:	0a000028 	beq	d6ec <PiConsole_Init+0xf8>
    d648:	e59d4068 	ldr	r4, [sp, #104]	; 0x68
    d64c:	e3a03008 	mov	r3, #8
    d650:	e3a0c004 	mov	ip, #4
    d654:	e1a01003 	mov	r1, r3
    d658:	e1a00007 	mov	r0, r7
    d65c:	e3401004 	movt	r1, #4
    d660:	e58dc028 	str	ip, [sp, #40]	; 0x28
    d664:	e58dc024 	str	ip, [sp, #36]	; 0x24
    d668:	e3082005 	movw	r2, #32773	; 0x8005
    d66c:	e3402004 	movt	r2, #4
    d670:	e58d1044 	str	r1, [sp, #68]	; 0x44
    d674:	e58d2020 	str	r2, [sp, #32]
    d678:	e3a01017 	mov	r1, #23
    d67c:	e58d601c 	str	r6, [sp, #28]
    d680:	e3082004 	movw	r2, #32772	; 0x8004
    d684:	e3402004 	movt	r2, #4
    d688:	e58d5018 	str	r5, [sp, #24]
    d68c:	e58d200c 	str	r2, [sp, #12]
    d690:	e3082003 	movw	r2, #32771	; 0x8003
    d694:	e3402004 	movt	r2, #4
    d698:	e58d6008 	str	r6, [sp, #8]
    d69c:	e58d5004 	str	r5, [sp, #4]
    d6a0:	e3a09000 	mov	r9, #0
    d6a4:	e58d3014 	str	r3, [sp, #20]
    d6a8:	e3a0e001 	mov	lr, #1
    d6ac:	e340e004 	movt	lr, #4
    d6b0:	e58d3010 	str	r3, [sp, #16]
    d6b4:	e58d3000 	str	r3, [sp]
    d6b8:	e58dc048 	str	ip, [sp, #72]	; 0x48
    d6bc:	e58dc038 	str	ip, [sp, #56]	; 0x38
    d6c0:	e3a0c010 	mov	ip, #16
    d6c4:	e58d402c 	str	r4, [sp, #44]	; 0x2c
    d6c8:	e58d3034 	str	r3, [sp, #52]	; 0x34
    d6cc:	e58de030 	str	lr, [sp, #48]	; 0x30
    d6d0:	e58d9050 	str	r9, [sp, #80]	; 0x50
    d6d4:	e58d904c 	str	r9, [sp, #76]	; 0x4c
    d6d8:	e58d9040 	str	r9, [sp, #64]	; 0x40
    d6dc:	e58dc03c 	str	ip, [sp, #60]	; 0x3c
    d6e0:	ebfffa77 	bl	c0c4 <mailbox_tag_message.constprop.2>
    d6e4:	e2507000 	subs	r7, r0, #0
    d6e8:	1a000003 	bne	d6fc <PiConsole_Init+0x108>
    d6ec:	e3a07000 	mov	r7, #0
    d6f0:	e1a00007 	mov	r0, r7
    d6f4:	e28dd0bc 	add	sp, sp, #188	; 0xbc
    d6f8:	e8bd83f0 	pop	{r4, r5, r6, r7, r8, r9, pc}
    d6fc:	e59d00a0 	ldr	r0, [sp, #160]	; 0xa0
    d700:	ebffeb59 	bl	846c <GPUaddrToARMaddr>
    d704:	e30e2f94 	movw	r2, #61332	; 0xef94
    d708:	e3402000 	movt	r2, #0
    d70c:	e59d30b4 	ldr	r3, [sp, #180]	; 0xb4
    d710:	e3a01cff 	mov	r1, #65280	; 0xff00
    d714:	e34f1f00 	movt	r1, #65280	; 0xff00
    d718:	e3540018 	cmp	r4, #24
    d71c:	e5820004 	str	r0, [r2, #4]
    d720:	e3e00000 	mvn	r0, #0
    d724:	e582902c 	str	r9, [r2, #44]	; 0x2c
    d728:	e5825008 	str	r5, [r2, #8]
    d72c:	e582600c 	str	r6, [r2, #12]
    d730:	e5824010 	str	r4, [r2, #16]
    d734:	e5820028 	str	r0, [r2, #40]	; 0x28
    d738:	e5821030 	str	r1, [r2, #48]	; 0x30
    d73c:	e5823014 	str	r3, [r2, #20]
    d740:	0a000052 	beq	d890 <PiConsole_Init+0x29c>
    d744:	e3540020 	cmp	r4, #32
    d748:	0a000038 	beq	d830 <PiConsole_Init+0x23c>
    d74c:	e3540010 	cmp	r4, #16
    d750:	0a00001e 	beq	d7d0 <PiConsole_Init+0x1dc>
    d754:	e3580000 	cmp	r8, #0
    d758:	0affffe4 	beq	d6f0 <PiConsole_Init+0xfc>
    d75c:	e58d3000 	str	r3, [sp]
    d760:	e1a02006 	mov	r2, r6
    d764:	e1a03004 	mov	r3, r4
    d768:	e1a01005 	mov	r1, r5
    d76c:	e30d0e74 	movw	r0, #56948	; 0xde74
    d770:	e3400000 	movt	r0, #0
    d774:	e12fff38 	blx	r8
    d778:	e1a00007 	mov	r0, r7
    d77c:	e28dd0bc 	add	sp, sp, #188	; 0xbc
    d780:	e8bd83f0 	pop	{r4, r5, r6, r7, r8, r9, pc}
    d784:	e3a03000 	mov	r3, #0
    d788:	e1a00007 	mov	r0, r7
    d78c:	e58d3008 	str	r3, [sp, #8]
    d790:	e3a02003 	mov	r2, #3
    d794:	e3402004 	movt	r2, #4
    d798:	e58d3004 	str	r3, [sp, #4]
    d79c:	e58d3000 	str	r3, [sp]
    d7a0:	e3a01005 	mov	r1, #5
    d7a4:	e3a03008 	mov	r3, #8
    d7a8:	ebfffa82 	bl	c1b8 <mailbox_tag_message.constprop.0>
    d7ac:	e3500000 	cmp	r0, #0
    d7b0:	0affffcd 	beq	d6ec <PiConsole_Init+0xf8>
    d7b4:	e3550000 	cmp	r5, #0
    d7b8:	1a000002 	bne	d7c8 <PiConsole_Init+0x1d4>
    d7bc:	e59d5068 	ldr	r5, [sp, #104]	; 0x68
    d7c0:	e3560000 	cmp	r6, #0
    d7c4:	1affff94 	bne	d61c <PiConsole_Init+0x28>
    d7c8:	e59d606c 	ldr	r6, [sp, #108]	; 0x6c
    d7cc:	eaffff92 	b	d61c <PiConsole_Init+0x28>
    d7d0:	e1a030a3 	lsr	r3, r3, #1
    d7d4:	e30b1120 	movw	r1, #45344	; 0xb120
    d7d8:	e3401000 	movt	r1, #0
    d7dc:	e5823014 	str	r3, [r2, #20]
    d7e0:	e5821034 	str	r1, [r2, #52]	; 0x34
    d7e4:	e30b1228 	movw	r1, #45608	; 0xb228
    d7e8:	e3401000 	movt	r1, #0
    d7ec:	e5821038 	str	r1, [r2, #56]	; 0x38
    d7f0:	e30b1444 	movw	r1, #46148	; 0xb444
    d7f4:	e3401000 	movt	r1, #0
    d7f8:	e582103c 	str	r1, [r2, #60]	; 0x3c
    d7fc:	e30b15c0 	movw	r1, #46528	; 0xb5c0
    d800:	e3401000 	movt	r1, #0
    d804:	e5821040 	str	r1, [r2, #64]	; 0x40
    d808:	e30b1668 	movw	r1, #46696	; 0xb668
    d80c:	e3401000 	movt	r1, #0
    d810:	e5821044 	str	r1, [r2, #68]	; 0x44
    d814:	e30b1780 	movw	r1, #46976	; 0xb780
    d818:	e3401000 	movt	r1, #0
    d81c:	e5821048 	str	r1, [r2, #72]	; 0x48
    d820:	e30b1820 	movw	r1, #47136	; 0xb820
    d824:	e3401000 	movt	r1, #0
    d828:	e582104c 	str	r1, [r2, #76]	; 0x4c
    d82c:	eaffffc8 	b	d754 <PiConsole_Init+0x160>
    d830:	e1a03123 	lsr	r3, r3, #2
    d834:	e30b1d60 	movw	r1, #48480	; 0xbd60
    d838:	e3401000 	movt	r1, #0
    d83c:	e5823014 	str	r3, [r2, #20]
    d840:	e5821034 	str	r1, [r2, #52]	; 0x34
    d844:	e30b1dbc 	movw	r1, #48572	; 0xbdbc
    d848:	e3401000 	movt	r1, #0
    d84c:	e5821038 	str	r1, [r2, #56]	; 0x38
    d850:	e30b1e54 	movw	r1, #48724	; 0xbe54
    d854:	e3401000 	movt	r1, #0
    d858:	e582103c 	str	r1, [r2, #60]	; 0x3c
    d85c:	e30b1ec0 	movw	r1, #48832	; 0xbec0
    d860:	e3401000 	movt	r1, #0
    d864:	e5821040 	str	r1, [r2, #64]	; 0x40
    d868:	e30b1f40 	movw	r1, #48960	; 0xbf40
    d86c:	e3401000 	movt	r1, #0
    d870:	e5821044 	str	r1, [r2, #68]	; 0x44
    d874:	e30b1fcc 	movw	r1, #49100	; 0xbfcc
    d878:	e3401000 	movt	r1, #0
    d87c:	e5821048 	str	r1, [r2, #72]	; 0x48
    d880:	e30c1048 	movw	r1, #49224	; 0xc048
    d884:	e3401000 	movt	r1, #0
    d888:	e582104c 	str	r1, [r2, #76]	; 0x4c
    d88c:	eaffffb0 	b	d754 <PiConsole_Init+0x160>
    d890:	e30a1aab 	movw	r1, #43691	; 0xaaab
    d894:	e34a1aaa 	movt	r1, #43690	; 0xaaaa
    d898:	e30b08c0 	movw	r0, #47296	; 0xb8c0
    d89c:	e3400000 	movt	r0, #0
    d8a0:	e5820034 	str	r0, [r2, #52]	; 0x34
    d8a4:	e30b0938 	movw	r0, #47416	; 0xb938
    d8a8:	e3400000 	movt	r0, #0
    d8ac:	e0831391 	umull	r1, r3, r1, r3
    d8b0:	e5820038 	str	r0, [r2, #56]	; 0x38
    d8b4:	e30b1a0c 	movw	r1, #47628	; 0xba0c
    d8b8:	e3401000 	movt	r1, #0
    d8bc:	e582103c 	str	r1, [r2, #60]	; 0x3c
    d8c0:	e1a030a3 	lsr	r3, r3, #1
    d8c4:	e30b1aa8 	movw	r1, #47784	; 0xbaa8
    d8c8:	e3401000 	movt	r1, #0
    d8cc:	e5823014 	str	r3, [r2, #20]
    d8d0:	e5821040 	str	r1, [r2, #64]	; 0x40
    d8d4:	e30b1b74 	movw	r1, #47988	; 0xbb74
    d8d8:	e3401000 	movt	r1, #0
    d8dc:	e5821044 	str	r1, [r2, #68]	; 0x44
    d8e0:	e30b1c18 	movw	r1, #48152	; 0xbc18
    d8e4:	e3401000 	movt	r1, #0
    d8e8:	e5821048 	str	r1, [r2, #72]	; 0x48
    d8ec:	e30b1cc8 	movw	r1, #48328	; 0xbcc8
    d8f0:	e3401000 	movt	r1, #0
    d8f4:	e582104c 	str	r1, [r2, #76]	; 0x4c
    d8f8:	eaffff95 	b	d754 <PiConsole_Init+0x160>

0000d8fc <GetConsoleDC>:
    d8fc:	e59f0000 	ldr	r0, [pc]	; d904 <GetConsoleDC+0x8>
    d900:	e12fff1e 	bx	lr
    d904:	0000ef98 	.word	0x0000ef98

0000d908 <GetConsole_FrameBuffer>:
    d908:	e30e3f94 	movw	r3, #61332	; 0xef94
    d90c:	e3403000 	movt	r3, #0
    d910:	e5930004 	ldr	r0, [r3, #4]
    d914:	e12fff1e 	bx	lr

0000d918 <GetConsole_Width>:
    d918:	e30e3f94 	movw	r3, #61332	; 0xef94
    d91c:	e3403000 	movt	r3, #0
    d920:	e5930008 	ldr	r0, [r3, #8]
    d924:	e12fff1e 	bx	lr

0000d928 <GetConsole_Height>:
    d928:	e30e3f94 	movw	r3, #61332	; 0xef94
    d92c:	e3403000 	movt	r3, #0
    d930:	e593000c 	ldr	r0, [r3, #12]
    d934:	e12fff1e 	bx	lr

0000d938 <WhereXY>:
    d938:	e3500000 	cmp	r0, #0
    d93c:	130e3f94 	movwne	r3, #61332	; 0xef94
    d940:	13403000 	movtne	r3, #0
    d944:	15933020 	ldrne	r3, [r3, #32]
    d948:	15803000 	strne	r3, [r0]
    d94c:	e3510000 	cmp	r1, #0
    d950:	130e3f94 	movwne	r3, #61332	; 0xef94
    d954:	13403000 	movtne	r3, #0
    d958:	15933024 	ldrne	r3, [r3, #36]	; 0x24
    d95c:	15813000 	strne	r3, [r1]
    d960:	e12fff1e 	bx	lr

0000d964 <GotoXY>:
    d964:	e30e3f94 	movw	r3, #61332	; 0xef94
    d968:	e3403000 	movt	r3, #0
    d96c:	e5830020 	str	r0, [r3, #32]
    d970:	e5831024 	str	r1, [r3, #36]	; 0x24
    d974:	e12fff1e 	bx	lr

0000d978 <_sbrk>:
    d978:	e30e2f94 	movw	r2, #61332	; 0xef94
    d97c:	e3402000 	movt	r2, #0
    d980:	e30717e8 	movw	r1, #30696	; 0x77e8
    d984:	e3401001 	movt	r1, #1
    d988:	e5923050 	ldr	r3, [r2, #80]	; 0x50
    d98c:	e3530000 	cmp	r3, #0
    d990:	01a03001 	moveq	r3, r1
    d994:	e0831000 	add	r1, r3, r0
    d998:	e1a00003 	mov	r0, r3
    d99c:	e5821050 	str	r1, [r2, #80]	; 0x50
    d9a0:	e12fff1e 	bx	lr

0000d9a4 <memcpy>:
    d9a4:	4684      	mov	ip, r0
    d9a6:	ea41 0300 	orr.w	r3, r1, r0
    d9aa:	f013 0303 	ands.w	r3, r3, #3
    d9ae:	d149      	bne.n	da44 <memcpy+0xa0>
    d9b0:	3a40      	subs	r2, #64	; 0x40
    d9b2:	d323      	bcc.n	d9fc <memcpy+0x58>
    d9b4:	680b      	ldr	r3, [r1, #0]
    d9b6:	6003      	str	r3, [r0, #0]
    d9b8:	684b      	ldr	r3, [r1, #4]
    d9ba:	6043      	str	r3, [r0, #4]
    d9bc:	688b      	ldr	r3, [r1, #8]
    d9be:	6083      	str	r3, [r0, #8]
    d9c0:	68cb      	ldr	r3, [r1, #12]
    d9c2:	60c3      	str	r3, [r0, #12]
    d9c4:	690b      	ldr	r3, [r1, #16]
    d9c6:	6103      	str	r3, [r0, #16]
    d9c8:	694b      	ldr	r3, [r1, #20]
    d9ca:	6143      	str	r3, [r0, #20]
    d9cc:	698b      	ldr	r3, [r1, #24]
    d9ce:	6183      	str	r3, [r0, #24]
    d9d0:	69cb      	ldr	r3, [r1, #28]
    d9d2:	61c3      	str	r3, [r0, #28]
    d9d4:	6a0b      	ldr	r3, [r1, #32]
    d9d6:	6203      	str	r3, [r0, #32]
    d9d8:	6a4b      	ldr	r3, [r1, #36]	; 0x24
    d9da:	6243      	str	r3, [r0, #36]	; 0x24
    d9dc:	6a8b      	ldr	r3, [r1, #40]	; 0x28
    d9de:	6283      	str	r3, [r0, #40]	; 0x28
    d9e0:	6acb      	ldr	r3, [r1, #44]	; 0x2c
    d9e2:	62c3      	str	r3, [r0, #44]	; 0x2c
    d9e4:	6b0b      	ldr	r3, [r1, #48]	; 0x30
    d9e6:	6303      	str	r3, [r0, #48]	; 0x30
    d9e8:	6b4b      	ldr	r3, [r1, #52]	; 0x34
    d9ea:	6343      	str	r3, [r0, #52]	; 0x34
    d9ec:	6b8b      	ldr	r3, [r1, #56]	; 0x38
    d9ee:	6383      	str	r3, [r0, #56]	; 0x38
    d9f0:	6bcb      	ldr	r3, [r1, #60]	; 0x3c
    d9f2:	63c3      	str	r3, [r0, #60]	; 0x3c
    d9f4:	3040      	adds	r0, #64	; 0x40
    d9f6:	3140      	adds	r1, #64	; 0x40
    d9f8:	3a40      	subs	r2, #64	; 0x40
    d9fa:	d2db      	bcs.n	d9b4 <memcpy+0x10>
    d9fc:	3230      	adds	r2, #48	; 0x30
    d9fe:	d30b      	bcc.n	da18 <memcpy+0x74>
    da00:	680b      	ldr	r3, [r1, #0]
    da02:	6003      	str	r3, [r0, #0]
    da04:	684b      	ldr	r3, [r1, #4]
    da06:	6043      	str	r3, [r0, #4]
    da08:	688b      	ldr	r3, [r1, #8]
    da0a:	6083      	str	r3, [r0, #8]
    da0c:	68cb      	ldr	r3, [r1, #12]
    da0e:	60c3      	str	r3, [r0, #12]
    da10:	3010      	adds	r0, #16
    da12:	3110      	adds	r1, #16
    da14:	3a10      	subs	r2, #16
    da16:	d2f3      	bcs.n	da00 <memcpy+0x5c>
    da18:	320c      	adds	r2, #12
    da1a:	d305      	bcc.n	da28 <memcpy+0x84>
    da1c:	f851 3b04 	ldr.w	r3, [r1], #4
    da20:	f840 3b04 	str.w	r3, [r0], #4
    da24:	3a04      	subs	r2, #4
    da26:	d2f9      	bcs.n	da1c <memcpy+0x78>
    da28:	3204      	adds	r2, #4
    da2a:	d008      	beq.n	da3e <memcpy+0x9a>
    da2c:	07d2      	lsls	r2, r2, #31
    da2e:	bf1c      	itt	ne
    da30:	f811 3b01 	ldrbne.w	r3, [r1], #1
    da34:	f800 3b01 	strbne.w	r3, [r0], #1
    da38:	d301      	bcc.n	da3e <memcpy+0x9a>
    da3a:	880b      	ldrh	r3, [r1, #0]
    da3c:	8003      	strh	r3, [r0, #0]
    da3e:	4660      	mov	r0, ip
    da40:	4770      	bx	lr
    da42:	bf00      	nop
    da44:	2a08      	cmp	r2, #8
    da46:	d313      	bcc.n	da70 <memcpy+0xcc>
    da48:	078b      	lsls	r3, r1, #30
    da4a:	d0b1      	beq.n	d9b0 <memcpy+0xc>
    da4c:	f010 0303 	ands.w	r3, r0, #3
    da50:	d0ae      	beq.n	d9b0 <memcpy+0xc>
    da52:	f1c3 0304 	rsb	r3, r3, #4
    da56:	1ad2      	subs	r2, r2, r3
    da58:	07db      	lsls	r3, r3, #31
    da5a:	bf1c      	itt	ne
    da5c:	f811 3b01 	ldrbne.w	r3, [r1], #1
    da60:	f800 3b01 	strbne.w	r3, [r0], #1
    da64:	d3a4      	bcc.n	d9b0 <memcpy+0xc>
    da66:	f831 3b02 	ldrh.w	r3, [r1], #2
    da6a:	f820 3b02 	strh.w	r3, [r0], #2
    da6e:	e79f      	b.n	d9b0 <memcpy+0xc>
    da70:	3a04      	subs	r2, #4
    da72:	d3d9      	bcc.n	da28 <memcpy+0x84>
    da74:	3a01      	subs	r2, #1
    da76:	f811 3b01 	ldrb.w	r3, [r1], #1
    da7a:	f800 3b01 	strb.w	r3, [r0], #1
    da7e:	d2f9      	bcs.n	da74 <memcpy+0xd0>
    da80:	780b      	ldrb	r3, [r1, #0]
    da82:	7003      	strb	r3, [r0, #0]
    da84:	784b      	ldrb	r3, [r1, #1]
    da86:	7043      	strb	r3, [r0, #1]
    da88:	788b      	ldrb	r3, [r1, #2]
    da8a:	7083      	strb	r3, [r0, #2]
    da8c:	4660      	mov	r0, ip
    da8e:	4770      	bx	lr

0000da90 <strlen>:
    da90:	f020 0103 	bic.w	r1, r0, #3
    da94:	f010 0003 	ands.w	r0, r0, #3
    da98:	f1c0 0000 	rsb	r0, r0, #0
    da9c:	f851 3b04 	ldr.w	r3, [r1], #4
    daa0:	f100 0c04 	add.w	ip, r0, #4
    daa4:	ea4f 0ccc 	mov.w	ip, ip, lsl #3
    daa8:	f06f 0200 	mvn.w	r2, #0
    daac:	bf1c      	itt	ne
    daae:	fa22 f20c 	lsrne.w	r2, r2, ip
    dab2:	4313      	orrne	r3, r2
    dab4:	f04f 0c01 	mov.w	ip, #1
    dab8:	ea4c 2c0c 	orr.w	ip, ip, ip, lsl #8
    dabc:	ea4c 4c0c 	orr.w	ip, ip, ip, lsl #16
    dac0:	eba3 020c 	sub.w	r2, r3, ip
    dac4:	ea22 0203 	bic.w	r2, r2, r3
    dac8:	ea12 12cc 	ands.w	r2, r2, ip, lsl #7
    dacc:	bf04      	itt	eq
    dace:	f851 3b04 	ldreq.w	r3, [r1], #4
    dad2:	3004      	addeq	r0, #4
    dad4:	d0f4      	beq.n	dac0 <strlen+0x30>
    dad6:	f1c2 0100 	rsb	r1, r2, #0
    dada:	ea02 0201 	and.w	r2, r2, r1
    dade:	fab2 f282 	clz	r2, r2
    dae2:	f1c2 021f 	rsb	r2, r2, #31
    dae6:	eb00 00d2 	add.w	r0, r0, r2, lsr #3
    daea:	4770      	bx	lr

0000daec <__aeabi_ldivmod>:
    daec:	b97b      	cbnz	r3, db0e <__aeabi_ldivmod+0x22>
    daee:	b972      	cbnz	r2, db0e <__aeabi_ldivmod+0x22>
    daf0:	2900      	cmp	r1, #0
    daf2:	bfbe      	ittt	lt
    daf4:	2000      	movlt	r0, #0
    daf6:	f04f 4100 	movlt.w	r1, #2147483648	; 0x80000000
    dafa:	e006      	blt.n	db0a <__aeabi_ldivmod+0x1e>
    dafc:	bf08      	it	eq
    dafe:	2800      	cmpeq	r0, #0
    db00:	bf1c      	itt	ne
    db02:	f06f 4100 	mvnne.w	r1, #2147483648	; 0x80000000
    db06:	f04f 30ff 	movne.w	r0, #4294967295	; 0xffffffff
    db0a:	f000 b8e5 	b.w	dcd8 <__aeabi_idiv0>
    db0e:	f1ad 0c08 	sub.w	ip, sp, #8
    db12:	e96d ce04 	strd	ip, lr, [sp, #-16]!
    db16:	2900      	cmp	r1, #0
    db18:	db09      	blt.n	db2e <__aeabi_ldivmod+0x42>
    db1a:	2b00      	cmp	r3, #0
    db1c:	db1a      	blt.n	db54 <__aeabi_ldivmod+0x68>
    db1e:	f000 f84d 	bl	dbbc <__udivmoddi4>
    db22:	f8dd e004 	ldr.w	lr, [sp, #4]
    db26:	e9dd 2302 	ldrd	r2, r3, [sp, #8]
    db2a:	b004      	add	sp, #16
    db2c:	4770      	bx	lr
    db2e:	4240      	negs	r0, r0
    db30:	eb61 0141 	sbc.w	r1, r1, r1, lsl #1
    db34:	2b00      	cmp	r3, #0
    db36:	db1b      	blt.n	db70 <__aeabi_ldivmod+0x84>
    db38:	f000 f840 	bl	dbbc <__udivmoddi4>
    db3c:	f8dd e004 	ldr.w	lr, [sp, #4]
    db40:	e9dd 2302 	ldrd	r2, r3, [sp, #8]
    db44:	b004      	add	sp, #16
    db46:	4240      	negs	r0, r0
    db48:	eb61 0141 	sbc.w	r1, r1, r1, lsl #1
    db4c:	4252      	negs	r2, r2
    db4e:	eb63 0343 	sbc.w	r3, r3, r3, lsl #1
    db52:	4770      	bx	lr
    db54:	4252      	negs	r2, r2
    db56:	eb63 0343 	sbc.w	r3, r3, r3, lsl #1
    db5a:	f000 f82f 	bl	dbbc <__udivmoddi4>
    db5e:	f8dd e004 	ldr.w	lr, [sp, #4]
    db62:	e9dd 2302 	ldrd	r2, r3, [sp, #8]
    db66:	b004      	add	sp, #16
    db68:	4240      	negs	r0, r0
    db6a:	eb61 0141 	sbc.w	r1, r1, r1, lsl #1
    db6e:	4770      	bx	lr
    db70:	4252      	negs	r2, r2
    db72:	eb63 0343 	sbc.w	r3, r3, r3, lsl #1
    db76:	f000 f821 	bl	dbbc <__udivmoddi4>
    db7a:	f8dd e004 	ldr.w	lr, [sp, #4]
    db7e:	e9dd 2302 	ldrd	r2, r3, [sp, #8]
    db82:	b004      	add	sp, #16
    db84:	4252      	negs	r2, r2
    db86:	eb63 0343 	sbc.w	r3, r3, r3, lsl #1
    db8a:	4770      	bx	lr

0000db8c <__aeabi_uldivmod>:
    db8c:	b953      	cbnz	r3, dba4 <__aeabi_uldivmod+0x18>
    db8e:	b94a      	cbnz	r2, dba4 <__aeabi_uldivmod+0x18>
    db90:	2900      	cmp	r1, #0
    db92:	bf08      	it	eq
    db94:	2800      	cmpeq	r0, #0
    db96:	bf1c      	itt	ne
    db98:	f04f 31ff 	movne.w	r1, #4294967295	; 0xffffffff
    db9c:	f04f 30ff 	movne.w	r0, #4294967295	; 0xffffffff
    dba0:	f000 b89a 	b.w	dcd8 <__aeabi_idiv0>
    dba4:	f1ad 0c08 	sub.w	ip, sp, #8
    dba8:	e96d ce04 	strd	ip, lr, [sp, #-16]!
    dbac:	f000 f806 	bl	dbbc <__udivmoddi4>
    dbb0:	f8dd e004 	ldr.w	lr, [sp, #4]
    dbb4:	e9dd 2302 	ldrd	r2, r3, [sp, #8]
    dbb8:	b004      	add	sp, #16
    dbba:	4770      	bx	lr

0000dbbc <__udivmoddi4>:
    dbbc:	4299      	cmp	r1, r3
    dbbe:	bf08      	it	eq
    dbc0:	4290      	cmpeq	r0, r2
    dbc2:	e92d 4ff0 	stmdb	sp!, {r4, r5, r6, r7, r8, r9, sl, fp, lr}
    dbc6:	4604      	mov	r4, r0
    dbc8:	bf38      	it	cc
    dbca:	2000      	movcc	r0, #0
    dbcc:	460d      	mov	r5, r1
    dbce:	f8dd c024 	ldr.w	ip, [sp, #36]	; 0x24
    dbd2:	bf38      	it	cc
    dbd4:	4601      	movcc	r1, r0
    dbd6:	d36b      	bcc.n	dcb0 <__udivmoddi4+0xf4>
    dbd8:	4690      	mov	r8, r2
    dbda:	4699      	mov	r9, r3
    dbdc:	fab3 f283 	clz	r2, r3
    dbe0:	2b00      	cmp	r3, #0
    dbe2:	d070      	beq.n	dcc6 <__udivmoddi4+0x10a>
    dbe4:	fab5 f385 	clz	r3, r5
    dbe8:	2d00      	cmp	r5, #0
    dbea:	d068      	beq.n	dcbe <__udivmoddi4+0x102>
    dbec:	1ad2      	subs	r2, r2, r3
    dbee:	f1a2 0e20 	sub.w	lr, r2, #32
    dbf2:	fa09 fb02 	lsl.w	fp, r9, r2
    dbf6:	fa08 f30e 	lsl.w	r3, r8, lr
    dbfa:	f1c2 0720 	rsb	r7, r2, #32
    dbfe:	ea4b 0b03 	orr.w	fp, fp, r3
    dc02:	fa28 f307 	lsr.w	r3, r8, r7
    dc06:	ea4b 0b03 	orr.w	fp, fp, r3
    dc0a:	fa08 fa02 	lsl.w	sl, r8, r2
    dc0e:	455d      	cmp	r5, fp
    dc10:	bf08      	it	eq
    dc12:	4554      	cmpeq	r4, sl
    dc14:	bf3c      	itt	cc
    dc16:	2000      	movcc	r0, #0
    dc18:	4601      	movcc	r1, r0
    dc1a:	d30a      	bcc.n	dc32 <__udivmoddi4+0x76>
    dc1c:	2001      	movs	r0, #1
    dc1e:	ebb4 040a 	subs.w	r4, r4, sl
    dc22:	fa00 f10e 	lsl.w	r1, r0, lr
    dc26:	fa20 f307 	lsr.w	r3, r0, r7
    dc2a:	eb65 050b 	sbc.w	r5, r5, fp
    dc2e:	4319      	orrs	r1, r3
    dc30:	4090      	lsls	r0, r2
    dc32:	2a00      	cmp	r2, #0
    dc34:	d03c      	beq.n	dcb0 <__udivmoddi4+0xf4>
    dc36:	ea4f 085a 	mov.w	r8, sl, lsr #1
    dc3a:	ea4f 095b 	mov.w	r9, fp, lsr #1
    dc3e:	ea48 78cb 	orr.w	r8, r8, fp, lsl #31
    dc42:	4616      	mov	r6, r2
    dc44:	e00b      	b.n	dc5e <__udivmoddi4+0xa2>
    dc46:	ebb4 0308 	subs.w	r3, r4, r8
    dc4a:	eb65 0a09 	sbc.w	sl, r5, r9
    dc4e:	18db      	adds	r3, r3, r3
    dc50:	eb4a 0a0a 	adc.w	sl, sl, sl
    dc54:	1c5c      	adds	r4, r3, #1
    dc56:	f14a 0500 	adc.w	r5, sl, #0
    dc5a:	3e01      	subs	r6, #1
    dc5c:	d007      	beq.n	dc6e <__udivmoddi4+0xb2>
    dc5e:	454d      	cmp	r5, r9
    dc60:	bf08      	it	eq
    dc62:	4544      	cmpeq	r4, r8
    dc64:	d2ef      	bcs.n	dc46 <__udivmoddi4+0x8a>
    dc66:	1924      	adds	r4, r4, r4
    dc68:	416d      	adcs	r5, r5
    dc6a:	3e01      	subs	r6, #1
    dc6c:	d1f7      	bne.n	dc5e <__udivmoddi4+0xa2>
    dc6e:	fa05 f707 	lsl.w	r7, r5, r7
    dc72:	fa24 f302 	lsr.w	r3, r4, r2
    dc76:	433b      	orrs	r3, r7
    dc78:	fa25 fe0e 	lsr.w	lr, r5, lr
    dc7c:	1900      	adds	r0, r0, r4
    dc7e:	fa25 f802 	lsr.w	r8, r5, r2
    dc82:	ea43 040e 	orr.w	r4, r3, lr
    dc86:	f1a2 0720 	sub.w	r7, r2, #32
    dc8a:	f1c2 0620 	rsb	r6, r2, #32
    dc8e:	fa08 f302 	lsl.w	r3, r8, r2
    dc92:	fa04 f707 	lsl.w	r7, r4, r7
    dc96:	fa04 f202 	lsl.w	r2, r4, r2
    dc9a:	ea43 0307 	orr.w	r3, r3, r7
    dc9e:	fa24 f606 	lsr.w	r6, r4, r6
    dca2:	eb45 0101 	adc.w	r1, r5, r1
    dca6:	4333      	orrs	r3, r6
    dca8:	1a80      	subs	r0, r0, r2
    dcaa:	4645      	mov	r5, r8
    dcac:	eb61 0103 	sbc.w	r1, r1, r3
    dcb0:	f1bc 0f00 	cmp.w	ip, #0
    dcb4:	d001      	beq.n	dcba <__udivmoddi4+0xfe>
    dcb6:	e9cc 4500 	strd	r4, r5, [ip]
    dcba:	e8bd 8ff0 	ldmia.w	sp!, {r4, r5, r6, r7, r8, r9, sl, fp, pc}
    dcbe:	fab4 f384 	clz	r3, r4
    dcc2:	3320      	adds	r3, #32
    dcc4:	e792      	b.n	dbec <__udivmoddi4+0x30>
    dcc6:	fab8 f288 	clz	r2, r8
    dcca:	fab5 f385 	clz	r3, r5
    dcce:	3220      	adds	r2, #32
    dcd0:	2d00      	cmp	r5, #0
    dcd2:	d18b      	bne.n	dbec <__udivmoddi4+0x30>
    dcd4:	e7f3      	b.n	dcbe <__udivmoddi4+0x102>
    dcd6:	bf00      	nop

0000dcd8 <__aeabi_idiv0>:
    dcd8:	4770      	bx	lr
    dcda:	bf00      	nop
